///////////////////////////////////////////////////////////////////////////////
//
// IAR C/C++ Compiler V9.20.1.2476 for 8051               22/Feb/2017  14:31:42
// Copyright 2004-2015 IAR Systems AB.
// Standalone license - IAR Embedded Workbench for 8051
//
//    Core               =  plain
//    Code model         =  banked
//    Data model         =  large
//    Calling convention =  xdata reentrant
//    Constant location  =  data_rom
//    Dptr setup         =  1,16
//                          
//    Source file        =  
//        C:\Users\koen\ZigBee-Code-WTWS\Projects\zstack\ZMain\TI2530DB\OnBoard.c
//    Command line       =  
//        -f
//        C:\Users\koen\ZigBee-Code-WTWS\Projects\zstack\Samples\DemoApp\CC2530DB\..\..\..\Tools\CC2530DB\f8wCoord.cfg
//        (-DCPU32MHZ -DROOT=__near_func -DMAC_CFG_APP_PENDING_QUEUE=TRUE
//        -DMAC_CFG_TX_DATA_MAX=5 -DMAC_CFG_TX_MAX=8 -DMAC_CFG_RX_MAX=5
//        -DZDO_COORDINATOR -DRTR_NWK) -f
//        C:\Users\koen\ZigBee-Code-WTWS\Projects\zstack\Samples\DemoApp\CC2530DB\..\..\..\Tools\CC2530DB\f8wConfig.cfg
//        (-DZIGBEEPRO -DSECURE=0 -DZG_SECURE_DYNAMIC=0 -DREFLECTOR
//        -DDEFAULT_CHANLIST=0x00002000 -DZDAPP_CONFIG_PAN_ID=0xABCD
//        -DNWK_START_DELAY=100 -DEXTENDED_JOINING_RANDOM_MASK=0x007F
//        -DBEACON_REQUEST_DELAY=100 -DBEACON_REQ_DELAY_MASK=0x00FF
//        -DLINK_STATUS_JITTER_MASK=0x007F -DROUTE_EXPIRY_TIME=30
//        -DAPSC_ACK_WAIT_DURATION_POLLED=3000 -DNWK_INDIRECT_MSG_TIMEOUT=7
//        -DMAX_RREQ_ENTRIES=8 -DAPSC_MAX_FRAME_RETRIES=3
//        -DNWK_MAX_DATA_RETRIES=2 -DMAX_POLL_FAILURE_RETRIES=2 -DMAX_BCAST=9
//        -DAPS_MAX_GROUPS=16 -DMAX_RTG_ENTRIES=40 -DNWK_MAX_BINDING_ENTRIES=4
//        -DMAX_BINDING_CLUSTER_IDS=4 "-DDEFAULT_KEY={'H', 'O', 'G', 'E', 'S',
//        'C', 'H', 'O', 'O', 'L', 'U', 'T', 'R', 'E', 'C', 'H'}"
//        -DMAC_MAX_FRAME_SIZE=116 -DZDNWKMGR_MIN_TRANSMISSIONS=20
//        "-DCONST=const __code" -DGENERIC=__generic -DRFD_RCVC_ALWAYS_ON=FALSE
//        -DPOLL_RATE=1000 -DQUEUED_POLL_RATE=100 -DRESPONSE_POLL_RATE=100)
//        -DREJOIN_POLL_RATE=440
//        C:\Users\koen\ZigBee-Code-WTWS\Projects\zstack\ZMain\TI2530DB\OnBoard.c
//        -D HOLD_AUTO_START -D BUILD_ALL_DEVICES -D REFLECTOR -D NV_INIT -D
//        NV_RESTORE -D HAL_UART=TRUE -lC
//        C:\Users\koen\ZigBee-Code-WTWS\Projects\zstack\Samples\DemoApp\CC2530DB\CoordinatorEB\List\
//        -lA
//        C:\Users\koen\ZigBee-Code-WTWS\Projects\zstack\Samples\DemoApp\CC2530DB\CoordinatorEB\List\
//        --diag_suppress Pe001,Pa010,Pe1665 -o
//        C:\Users\koen\ZigBee-Code-WTWS\Projects\zstack\Samples\DemoApp\CC2530DB\CoordinatorEB\Obj\
//        -e --no_cse --no_unroll --no_inline --no_code_motion --no_tbaa
//        --debug --core=plain --dptr=16,1 --data_model=large
//        --code_model=banked --calling_convention=xdata_reentrant
//        --place_constants=data_rom --nr_virtual_regs 16 -I
//        C:\Users\koen\ZigBee-Code-WTWS\Projects\zstack\Samples\DemoApp\CC2530DB\
//        -I
//        C:\Users\koen\ZigBee-Code-WTWS\Projects\zstack\Samples\DemoApp\CC2530DB\..\Source\
//        -I
//        C:\Users\koen\ZigBee-Code-WTWS\Projects\zstack\Samples\DemoApp\CC2530DB\..\..\..\ZMain\TI2530DB\
//        -I
//        C:\Users\koen\ZigBee-Code-WTWS\Projects\zstack\Samples\DemoApp\CC2530DB\..\..\..\..\..\Components\hal\include\
//        -I
//        C:\Users\koen\ZigBee-Code-WTWS\Projects\zstack\Samples\DemoApp\CC2530DB\..\..\..\..\..\Components\hal\target\CC2530EB\
//        -I
//        C:\Users\koen\ZigBee-Code-WTWS\Projects\zstack\Samples\DemoApp\CC2530DB\..\..\..\..\..\Components\mac\include\
//        -I
//        C:\Users\koen\ZigBee-Code-WTWS\Projects\zstack\Samples\DemoApp\CC2530DB\..\..\..\..\..\Components\mac\high_level\
//        -I
//        C:\Users\koen\ZigBee-Code-WTWS\Projects\zstack\Samples\DemoApp\CC2530DB\..\..\..\..\..\Components\mac\low_level\srf04\
//        -I
//        C:\Users\koen\ZigBee-Code-WTWS\Projects\zstack\Samples\DemoApp\CC2530DB\..\..\..\..\..\Components\mac\low_level\srf04\single_chip\
//        -I
//        C:\Users\koen\ZigBee-Code-WTWS\Projects\zstack\Samples\DemoApp\CC2530DB\..\..\..\..\..\Components\mt\
//        -I
//        C:\Users\koen\ZigBee-Code-WTWS\Projects\zstack\Samples\DemoApp\CC2530DB\..\..\..\..\..\Components\osal\include\
//        -I
//        C:\Users\koen\ZigBee-Code-WTWS\Projects\zstack\Samples\DemoApp\CC2530DB\..\..\..\..\..\Components\services\saddr\
//        -I
//        C:\Users\koen\ZigBee-Code-WTWS\Projects\zstack\Samples\DemoApp\CC2530DB\..\..\..\..\..\Components\services\sdata\
//        -I
//        C:\Users\koen\ZigBee-Code-WTWS\Projects\zstack\Samples\DemoApp\CC2530DB\..\..\..\..\..\Components\stack\af\
//        -I
//        C:\Users\koen\ZigBee-Code-WTWS\Projects\zstack\Samples\DemoApp\CC2530DB\..\..\..\..\..\Components\stack\nwk\
//        -I
//        C:\Users\koen\ZigBee-Code-WTWS\Projects\zstack\Samples\DemoApp\CC2530DB\..\..\..\..\..\Components\stack\sapi\
//        -I
//        C:\Users\koen\ZigBee-Code-WTWS\Projects\zstack\Samples\DemoApp\CC2530DB\..\..\..\..\..\Components\stack\sec\
//        -I
//        C:\Users\koen\ZigBee-Code-WTWS\Projects\zstack\Samples\DemoApp\CC2530DB\..\..\..\..\..\Components\stack\sys\
//        -I
//        C:\Users\koen\ZigBee-Code-WTWS\Projects\zstack\Samples\DemoApp\CC2530DB\..\..\..\..\..\Components\stack\zdo\
//        -I
//        C:\Users\koen\ZigBee-Code-WTWS\Projects\zstack\Samples\DemoApp\CC2530DB\..\..\..\..\..\Components\zmac\
//        -I
//        C:\Users\koen\ZigBee-Code-WTWS\Projects\zstack\Samples\DemoApp\CC2530DB\..\..\..\..\..\Components\zmac\f8w\
//        -Ol --require_prototypes
//    List file          =  
//        C:\Users\koen\ZigBee-Code-WTWS\Projects\zstack\Samples\DemoApp\CC2530DB\CoordinatorEB\List\OnBoard.s51
//
///////////////////////////////////////////////////////////////////////////////

        NAME OnBoard

        RTMODEL "__SystemLibrary", "CLib"
        RTMODEL "__calling_convention", "xdata_reentrant"
        RTMODEL "__code_model", "banked"
        RTMODEL "__core", "plain"
        RTMODEL "__data_model", "large"
        RTMODEL "__dptr_size", "16"
        RTMODEL "__extended_stack", "disabled"
        RTMODEL "__location_for_constants", "data"
        RTMODEL "__number_of_dptrs", "1"
        RTMODEL "__rt_version", "1"

        RSEG DOVERLAY:DATA:NOROOT(0)
        RSEG IOVERLAY:IDATA:NOROOT(0)
        RSEG ISTACK:IDATA:NOROOT(0)
        RSEG PSTACK:XDATA:NOROOT(0)
        RSEG XSTACK:DATA:REORDER:NOROOT(0)

        EXTERN ?V0
        EXTERN ?V1
        EXTERN ?V2
        EXTERN ?V3
        EXTERN ?V4
        EXTERN ?V5
        EXTERN ?ALLOC_XSTACK8
        EXTERN ?BANKED_ENTER_XDATA
        EXTERN ?BANKED_LEAVE_XDATA
        EXTERN ?BDISPATCH
        EXTERN ?BRET
        EXTERN ?DEALLOC_XSTACK8
        EXTERN ?US_DIV_MOD
        EXTERN ?XSP
        EXTERN __INIT_XDATA_I
        EXTERN __INIT_XDATA_Z

        PUBLIC `??BigLight_Off::?relay`
        FUNCTION `??BigLight_Off::?relay`,0203H
        PUBLIC `??BigLight_On::?relay`
        FUNCTION `??BigLight_On::?relay`,0203H
        PUBLIC `??BuzzerControl::?relay`
        FUNCTION `??BuzzerControl::?relay`,0203H
        FUNCTION `??ChkReset::?relay`,0203H
        PUBLIC `??Dimmer::?relay`
        FUNCTION `??Dimmer::?relay`,0203H
        PUBLIC `??GetUserDipSw::?relay`
        FUNCTION `??GetUserDipSw::?relay`,0203H
        PUBLIC `??InitBoard::?relay`
        FUNCTION `??InitBoard::?relay`,0203H
        PUBLIC `??OnBoard_KeyCallback::?relay`
        FUNCTION `??OnBoard_KeyCallback::?relay`,0203H
        PUBLIC `??OnBoard_SendKeys::?relay`
        FUNCTION `??OnBoard_SendKeys::?relay`,0203H
        PUBLIC `??OnBoard_stack_used::?relay`
        FUNCTION `??OnBoard_stack_used::?relay`,0203H
        PUBLIC `??Onboard_rand::?relay`
        FUNCTION `??Onboard_rand::?relay`,0203H
        PUBLIC `??Onboard_wait::?relay`
        FUNCTION `??Onboard_wait::?relay`,0203H
        PUBLIC `??RegisterForKeys::?relay`
        FUNCTION `??RegisterForKeys::?relay`,0203H
        PUBLIC `??_itoa::?relay`
        FUNCTION `??_itoa::?relay`,0203H
        PUBLIC BigLight_Off
        FUNCTION BigLight_Off,0203H
        ARGFRAME XSTACK, 0, STACK
        PUBLIC BigLight_On
        FUNCTION BigLight_On,0203H
        ARGFRAME XSTACK, 0, STACK
        PUBLIC BuzzerControl
        FUNCTION BuzzerControl,0203H
        ARGFRAME XSTACK, 0, STACK
        FUNCTION ChkReset,021203H
        ARGFRAME XSTACK, 9, STACK
        ARGFRAME IOVERLAY, 0, STATIC
        ARGFRAME DOVERLAY, 0, STATIC
        LOCFRAME ISTACK, 2, STACK
        PUBWEAK DMAARM
        PUBLIC Dimmer
        FUNCTION Dimmer,0203H
        ARGFRAME XSTACK, 0, STACK
        PUBLIC GetUserDipSw
        FUNCTION GetUserDipSw,0203H
        ARGFRAME XSTACK, 0, STACK
        PUBLIC InitBoard
        FUNCTION InitBoard,021203H
        ARGFRAME XSTACK, 0, STACK
        LOCFRAME XSTACK, 9, STACK
        PUBLIC OnBoard_KeyCallback
        FUNCTION OnBoard_KeyCallback,021603H
        ARGFRAME XSTACK, 0, STACK
        LOCFRAME XSTACK, 9, STACK
        PUBLIC OnBoard_SendKeys
        FUNCTION OnBoard_SendKeys,0a1203H
        ARGFRAME XSTACK, 9, STACK
        ARGFRAME IOVERLAY, 0, STATIC
        ARGFRAME DOVERLAY, 0, STATIC
        LOCFRAME ISTACK, 1, STACK
        LOCFRAME XSTACK, 10, STACK
        PUBLIC OnBoard_stack_used
        FUNCTION OnBoard_stack_used,0203H
        ARGFRAME XSTACK, 0, STACK
        LOCFRAME ISTACK, 2, STACK
        PUBLIC Onboard_rand
        FUNCTION Onboard_rand,021203H
        ARGFRAME XSTACK, 0, STACK
        LOCFRAME ISTACK, 2, STACK
        PUBLIC Onboard_soft_reset
        FUNCTION Onboard_soft_reset,080203H
        ARGFRAME XSTACK, 0, STACK
        PUBLIC Onboard_wait
        FUNCTION Onboard_wait,080203H
        ARGFRAME XSTACK, 0, STACK
        PUBLIC RegisterForKeys
        FUNCTION RegisterForKeys,0203H
        ARGFRAME XSTACK, 0, STACK
        LOCFRAME ISTACK, 2, STACK
        PUBWEAK SLEEPSTA
        PUBWEAK _A_IEN0
        PUBLIC _itoa
        FUNCTION _itoa,080203H
        ARGFRAME XSTACK, 0, STACK
        LOCFRAME ISTACK, 1, STACK
        LOCFRAME XSTACK, 19, STACK
        PUBLIC _lockBits
        PUBLIC _nvIEEE
        PUBLIC _reserved
        PUBLIC aExtendedAddress
        
          CFI Names cfiNames0
          CFI StackFrame CFA_SP SP IDATA
          CFI StackFrame CFA_PSP16 PSP16 XDATA
          CFI StackFrame CFA_XSP16 XSP16 XDATA
          CFI StaticOverlayFrame CFA_IOVERLAY IOVERLAY
          CFI StaticOverlayFrame CFA_DOVERLAY DOVERLAY
          CFI Resource `PSW.CY`:1, `B.BR0`:1, `B.BR1`:1, `B.BR2`:1, `B.BR3`:1
          CFI Resource `B.BR4`:1, `B.BR5`:1, `B.BR6`:1, `B.BR7`:1, `VB.BR8`:1
          CFI Resource `VB.BR9`:1, `VB.BR10`:1, `VB.BR11`:1, `VB.BR12`:1
          CFI Resource `VB.BR13`:1, `VB.BR14`:1, `VB.BR15`:1, VB:8, B:8, A:8
          CFI Resource PSW:8, DPL0:8, DPH0:8, R0:8, R1:8, R2:8, R3:8, R4:8, R5:8
          CFI Resource R6:8, R7:8, V0:8, V1:8, V2:8, V3:8, V4:8, V5:8, V6:8, V7:8
          CFI Resource V8:8, V9:8, V10:8, V11:8, V12:8, V13:8, V14:8, V15:8, SP:8
          CFI Resource PSPH:8, PSPL:8, PSP16:16, XSPH:8, XSPL:8, XSP16:16
          CFI VirtualResource ?RET:24
          CFI Resource ?BRET_EXT:8
          CFI VirtualResource ?RET_HIGH:8, ?RET_LOW:8
          CFI ResourceParts PSP16 PSPH, PSPL
          CFI ResourceParts XSP16 XSPH, XSPL
          CFI ResourceParts ?RET ?BRET_EXT, ?RET_HIGH, ?RET_LOW
          CFI EndNames cfiNames0
        
          CFI Common cfiCommon0 Using cfiNames0
          CFI CodeAlign 1
          CFI DataAlign -1
          CFI ReturnAddress ?RET CODE
          CFI CFA_DOVERLAY Used
          CFI CFA_IOVERLAY Used
          CFI CFA_SP SP+-3
          CFI CFA_PSP16 PSP16+0
          CFI CFA_XSP16 XSP16+0
          CFI `PSW.CY` SameValue
          CFI `B.BR0` SameValue
          CFI `B.BR1` SameValue
          CFI `B.BR2` SameValue
          CFI `B.BR3` SameValue
          CFI `B.BR4` SameValue
          CFI `B.BR5` SameValue
          CFI `B.BR6` SameValue
          CFI `B.BR7` SameValue
          CFI `VB.BR8` SameValue
          CFI `VB.BR9` SameValue
          CFI `VB.BR10` SameValue
          CFI `VB.BR11` SameValue
          CFI `VB.BR12` SameValue
          CFI `VB.BR13` SameValue
          CFI `VB.BR14` SameValue
          CFI `VB.BR15` SameValue
          CFI VB SameValue
          CFI B Undefined
          CFI A Undefined
          CFI PSW SameValue
          CFI DPL0 SameValue
          CFI DPH0 SameValue
          CFI R0 Undefined
          CFI R1 Undefined
          CFI R2 Undefined
          CFI R3 Undefined
          CFI R4 Undefined
          CFI R5 Undefined
          CFI R6 SameValue
          CFI R7 SameValue
          CFI V0 SameValue
          CFI V1 SameValue
          CFI V2 SameValue
          CFI V3 SameValue
          CFI V4 SameValue
          CFI V5 SameValue
          CFI V6 SameValue
          CFI V7 SameValue
          CFI V8 SameValue
          CFI V9 SameValue
          CFI V10 SameValue
          CFI V11 SameValue
          CFI V12 SameValue
          CFI V13 SameValue
          CFI V14 SameValue
          CFI V15 SameValue
          CFI PSPH Undefined
          CFI PSPL Undefined
          CFI XSPH Undefined
          CFI XSPL Undefined
          CFI ?RET Concat
          CFI ?BRET_EXT Frame(CFA_SP, 3)
          CFI ?RET_HIGH Frame(CFA_SP, 2)
          CFI ?RET_LOW Frame(CFA_SP, 1)
          CFI EndCommon cfiCommon0
        
        
          CFI Common cfiCommon1 Using cfiNames0
          CFI CodeAlign 1
          CFI DataAlign -1
          CFI ReturnAddress ?RET CODE
          CFI CFA_DOVERLAY Used
          CFI CFA_IOVERLAY Used
          CFI CFA_SP SP+-2
          CFI CFA_PSP16 PSP16+0
          CFI CFA_XSP16 XSP16+0
          CFI `PSW.CY` SameValue
          CFI `B.BR0` SameValue
          CFI `B.BR1` SameValue
          CFI `B.BR2` SameValue
          CFI `B.BR3` SameValue
          CFI `B.BR4` SameValue
          CFI `B.BR5` SameValue
          CFI `B.BR6` SameValue
          CFI `B.BR7` SameValue
          CFI `VB.BR8` SameValue
          CFI `VB.BR9` SameValue
          CFI `VB.BR10` SameValue
          CFI `VB.BR11` SameValue
          CFI `VB.BR12` SameValue
          CFI `VB.BR13` SameValue
          CFI `VB.BR14` SameValue
          CFI `VB.BR15` SameValue
          CFI VB SameValue
          CFI B Undefined
          CFI A Undefined
          CFI PSW SameValue
          CFI DPL0 SameValue
          CFI DPH0 SameValue
          CFI R0 Undefined
          CFI R1 Undefined
          CFI R2 Undefined
          CFI R3 Undefined
          CFI R4 Undefined
          CFI R5 Undefined
          CFI R6 SameValue
          CFI R7 SameValue
          CFI V0 SameValue
          CFI V1 SameValue
          CFI V2 SameValue
          CFI V3 SameValue
          CFI V4 SameValue
          CFI V5 SameValue
          CFI V6 SameValue
          CFI V7 SameValue
          CFI V8 SameValue
          CFI V9 SameValue
          CFI V10 SameValue
          CFI V11 SameValue
          CFI V12 SameValue
          CFI V13 SameValue
          CFI V14 SameValue
          CFI V15 SameValue
          CFI PSPH Undefined
          CFI PSPL Undefined
          CFI XSPH Undefined
          CFI XSPL Undefined
          CFI ?RET Concat
          CFI ?BRET_EXT SameValue
          CFI ?RET_HIGH Frame(CFA_SP, 2)
          CFI ?RET_LOW Frame(CFA_SP, 1)
          CFI EndCommon cfiCommon1
        
HalKeyConfig        SYMBOL "HalKeyConfig"
`??HalKeyConfig::?relay` SYMBOL "?relay", HalKeyConfig
halAssertHandler    SYMBOL "halAssertHandler"
`??halAssertHandler::?relay` SYMBOL "?relay", halAssertHandler
macMcuRandomWord    SYMBOL "macMcuRandomWord"
`??macMcuRandomWord::?relay` SYMBOL "?relay", macMcuRandomWord
osal_int_disable    SYMBOL "osal_int_disable"
`??osal_int_disable::?relay` SYMBOL "?relay", osal_int_disable
osal_msg_allocate   SYMBOL "osal_msg_allocate"
`??osal_msg_allocate::?relay` SYMBOL "?relay", osal_msg_allocate
osal_msg_send       SYMBOL "osal_msg_send"
`??osal_msg_send::?relay` SYMBOL "?relay", osal_msg_send
BigLight_Off        SYMBOL "BigLight_Off"
`??BigLight_Off::?relay` SYMBOL "?relay", BigLight_Off
BigLight_On         SYMBOL "BigLight_On"
`??BigLight_On::?relay` SYMBOL "?relay", BigLight_On
BuzzerControl       SYMBOL "BuzzerControl"
`??BuzzerControl::?relay` SYMBOL "?relay", BuzzerControl
Dimmer              SYMBOL "Dimmer"
`??Dimmer::?relay`  SYMBOL "?relay", Dimmer
GetUserDipSw        SYMBOL "GetUserDipSw"
`??GetUserDipSw::?relay` SYMBOL "?relay", GetUserDipSw
InitBoard           SYMBOL "InitBoard"
`??InitBoard::?relay` SYMBOL "?relay", InitBoard
OnBoard_KeyCallback SYMBOL "OnBoard_KeyCallback"
`??OnBoard_KeyCallback::?relay` SYMBOL "?relay", OnBoard_KeyCallback
OnBoard_SendKeys    SYMBOL "OnBoard_SendKeys"
`??OnBoard_SendKeys::?relay` SYMBOL "?relay", OnBoard_SendKeys
OnBoard_stack_used  SYMBOL "OnBoard_stack_used"
`??OnBoard_stack_used::?relay` SYMBOL "?relay", OnBoard_stack_used
Onboard_rand        SYMBOL "Onboard_rand"
`??Onboard_rand::?relay` SYMBOL "?relay", Onboard_rand
Onboard_wait        SYMBOL "Onboard_wait"
`??Onboard_wait::?relay` SYMBOL "?relay", Onboard_wait
RegisterForKeys     SYMBOL "RegisterForKeys"
`??RegisterForKeys::?relay` SYMBOL "?relay", RegisterForKeys
_itoa               SYMBOL "_itoa"
`??_itoa::?relay`   SYMBOL "?relay", _itoa

        EXTERN `??HalKeyConfig::?relay`
        FUNCTION `??HalKeyConfig::?relay`,00H
        EXTERN `??halAssertHandler::?relay`
        FUNCTION `??halAssertHandler::?relay`,00H
        EXTERN `??macMcuRandomWord::?relay`
        FUNCTION `??macMcuRandomWord::?relay`,00H
        EXTERN `??osal_int_disable::?relay`
        FUNCTION `??osal_int_disable::?relay`,00H
        EXTERN `??osal_msg_allocate::?relay`
        FUNCTION `??osal_msg_allocate::?relay`,00H
        EXTERN `??osal_msg_send::?relay`
        FUNCTION `??osal_msg_send::?relay`,00H
        EXTERN HalKeyConfig
        FUNCTION HalKeyConfig,0202H
        ARGFRAME ISTACK, 0, STACK
        ARGFRAME PSTACK, 0, STACK
        ARGFRAME XSTACK, 9, STACK
        ARGFRAME IOVERLAY, 0, STATIC
        ARGFRAME DOVERLAY, 0, STATIC
        EXTERN halAssertHandler
        FUNCTION halAssertHandler,0202H
        ARGFRAME ISTACK, 2, STACK
        ARGFRAME PSTACK, 0, STACK
        ARGFRAME XSTACK, 0, STACK
        ARGFRAME IOVERLAY, 0, STATIC
        ARGFRAME DOVERLAY, 0, STATIC
        EXTERN macMcuRandomWord
        FUNCTION macMcuRandomWord,0202H
        ARGFRAME ISTACK, 2, STACK
        ARGFRAME PSTACK, 0, STACK
        ARGFRAME XSTACK, 0, STACK
        ARGFRAME IOVERLAY, 0, STATIC
        ARGFRAME DOVERLAY, 0, STATIC
        EXTERN osal_int_disable
        FUNCTION osal_int_disable,0202H
        ARGFRAME ISTACK, 0, STACK
        ARGFRAME PSTACK, 0, STACK
        ARGFRAME XSTACK, 9, STACK
        ARGFRAME IOVERLAY, 0, STATIC
        ARGFRAME DOVERLAY, 0, STATIC
        EXTERN osal_msg_allocate
        FUNCTION osal_msg_allocate,0202H
        ARGFRAME ISTACK, 0, STACK
        ARGFRAME PSTACK, 0, STACK
        ARGFRAME XSTACK, 10, STACK
        ARGFRAME IOVERLAY, 0, STATIC
        ARGFRAME DOVERLAY, 0, STATIC
        EXTERN osal_msg_send
        FUNCTION osal_msg_send,0202H
        ARGFRAME ISTACK, 0, STACK
        ARGFRAME PSTACK, 0, STACK
        ARGFRAME XSTACK, 10, STACK
        ARGFRAME IOVERLAY, 0, STATIC
        ARGFRAME DOVERLAY, 0, STATIC

// C:\Users\koen\ZigBee-Code-WTWS\Projects\zstack\ZMain\TI2530DB\OnBoard.c
//    1 /**************************************************************************************************
//    2   Filename:       OnBoard.c
//    3   Revised:        $Date: 2012-11-15 11:48:16 -0800 (Thu, 15 Nov 2012) $
//    4   Revision:       $Revision: 32196 $
//    5 
//    6   Description:    This file contains the UI and control for the
//    7                   peripherals on the EVAL development board
//    8   Notes:          This file targets the Chipcon CC2530/31
//    9 
//   10 
//   11   Copyright 2005-2011 Texas Instruments Incorporated. All rights reserved.
//   12 
//   13   IMPORTANT: Your use of this Software is limited to those specific rights
//   14   granted under the terms of a software license agreement between the user
//   15   who downloaded the software, his/her employer (which must be your employer)
//   16   and Texas Instruments Incorporated (the "License").  You may not use this
//   17   Software unless you agree to abide by the terms of the License. The License
//   18   limits your use, and you acknowledge, that the Software may not be modified,
//   19   copied or distributed unless embedded on a Texas Instruments microcontroller
//   20   or used solely and exclusively in conjunction with a Texas Instruments radio
//   21   frequency transceiver, which is integrated into your product.  Other than for
//   22   the foregoing purpose, you may not use, reproduce, copy, prepare derivative
//   23   works of, modify, distribute, perform, display or sell this Software and/or
//   24   its documentation for any purpose.
//   25 
//   26   YOU FURTHER ACKNOWLEDGE AND AGREE THAT THE SOFTWARE AND DOCUMENTATION ARE
//   27   PROVIDED “AS IS” WITHOUT WARRANTY OF ANY KIND, EITHER EXPRESS OR IMPLIED,
//   28   INCLUDING WITHOUT LIMITATION, ANY WARRANTY OF MERCHANTABILITY, TITLE,
//   29   NON-INFRINGEMENT AND FITNESS FOR A PARTICULAR PURPOSE. IN NO EVENT SHALL
//   30   TEXAS INSTRUMENTS OR ITS LICENSORS BE LIABLE OR OBLIGATED UNDER CONTRACT,
//   31   NEGLIGENCE, STRICT LIABILITY, CONTRIBUTION, BREACH OF WARRANTY, OR OTHER
//   32   LEGAL EQUITABLE THEORY ANY DIRECT OR INDIRECT DAMAGES OR EXPENSES
//   33   INCLUDING BUT NOT LIMITED TO ANY INCIDENTAL, SPECIAL, INDIRECT, PUNITIVE
//   34   OR CONSEQUENTIAL DAMAGES, LOST PROFITS OR LOST DATA, COST OF PROCUREMENT
//   35   OF SUBSTITUTE GOODS, TECHNOLOGY, SERVICES, OR ANY CLAIMS BY THIRD PARTIES
//   36   (INCLUDING BUT NOT LIMITED TO ANY DEFENSE THEREOF), OR OTHER SIMILAR COSTS.
//   37 
//   38   Should you have any questions regarding your right to use this Software,
//   39   contact Texas Instruments Incorporated at www.TI.com.
//   40 **************************************************************************************************/
//   41 
//   42 /*********************************************************************
//   43  * INCLUDES
//   44  */
//   45 
//   46 #include "ZComDef.h"
//   47 #include "ZGlobals.h"
//   48 #include "OnBoard.h"

        ASEGN SFR_AN:DATA:NOROOT,09dH
// unsigned char volatile __sfr SLEEPSTA
SLEEPSTA:
        DATA8
        DS 1

        ASEGN SFR_AN:DATA:NOROOT,0a8H
// union <unnamed> volatile __sfr _A_IEN0
_A_IEN0:
        DATA8
        DS 1

        ASEGN SFR_AN:DATA:NOROOT,0d6H
// unsigned char volatile __sfr DMAARM
DMAARM:
        DATA8
        DS 1
//   49 #include "OSAL.h"
//   50 //#include "MT.h"
//   51 //#include "MT_SYS.h"
//   52 #include "DebugTrace.h"
//   53 
//   54 /* Hal */
//   55 #include "hal_lcd.h"
//   56 #include "hal_mcu.h"
//   57 #include "hal_timer.h"
//   58 #include "hal_key.h"
//   59 #include "hal_led.h"
//   60 
//   61 /* Allow access macRandomByte() */
//   62 #include "mac_radio_defs.h"
//   63 
//   64 /*********************************************************************
//   65  * CONSTANTS
//   66  */
//   67 
//   68 // Task ID not initialized
//   69 #define NO_TASK_ID 0xFF
//   70 
//   71 // Minimum length RAM "pattern" for Stack check
//   72 #define MIN_RAM_INIT 12
//   73 
//   74 /*********************************************************************
//   75  * GLOBAL VARIABLES
//   76  */
//   77 
//   78 #if defined MAKE_CRC_SHDW
//   79 #pragma location="CRC_SHDW"
//   80 const CODE uint16 _crcShdw = 0xFFFF;
//   81 #pragma required=_crcShdw
//   82 
//   83 #elif !defined MT_UBL_FUNC
//   84 
//   85 #pragma location="LOCK_BITS_ADDRESS_SPACE"

        RSEG LOCK_BITS_ADDRESS_SPACE:XDATA:REORDER:NOROOT(0)
        DATA8
//   86 __no_init uint8 _lockBits[16];
_lockBits:
        DS 16
//   87 #pragma required=_lockBits
//   88 
//   89 #if defined ZCL_KEY_ESTABLISH
//   90 #include "zcl_cert_data.c"
//   91 #else
//   92 #pragma location="IEEE_ADDRESS_SPACE"

        RSEG IEEE_ADDRESS_SPACE:XDATA:REORDER:NOROOT(0)
        DATA8
//   93 __no_init uint8 _nvIEEE[Z_EXTADDR_LEN];
_nvIEEE:
        DS 8
        REQUIRE _lockBits
//   94 #pragma required=_nvIEEE
//   95 #endif
//   96 
//   97 #pragma location="RESERVED_ADDRESS_SPACE"

        RSEG RESERVED_ADDRESS_SPACE:XDATA:REORDER:NOROOT(0)
        DATA8
//   98 __no_init uint8 _reserved[1932];
_reserved:
        DS 1932
        REQUIRE _nvIEEE
//   99 #pragma required=_reserved
//  100 #endif
//  101 
//  102 // 64-bit Extended Address of this device

        RSEG XDATA_Z:XDATA:NOROOT(0)
        DATA8
//  103 uint8 aExtendedAddress[8];
aExtendedAddress:
        DS 8
        REQUIRE __INIT_XDATA_Z
        REQUIRE _reserved
//  104 
//  105 /*********************************************************************
//  106  * LOCAL VARIABLES
//  107  */
//  108 
//  109 // Registered keys task ID, initialized to NOT USED.

        RSEG XDATA_I:XDATA:NOROOT(0)
//  110 static uint8 registeredKeysTaskID = NO_TASK_ID;
registeredKeysTaskID:
        DATA8
        DS 1
        REQUIRE `?<Initializer for registeredKeysTaskID>`
        REQUIRE __INIT_XDATA_I
//  111 
//  112 /*********************************************************************
//  113  * LOCAL FUNCTIONS
//  114  */
//  115 
//  116 static void ChkReset( void );
//  117 
//  118 /*********************************************************************
//  119  * @fn      InitBoard()
//  120  * @brief   Initialize the CC2420DB Board Peripherals
//  121  * @param   level: COLD,WARM,READY
//  122  * @return  None
//  123  */

        RSEG BANKED_CODE:CODE:NOROOT(0)
//  124 void InitBoard( uint8 level )
InitBoard:
          CFI Block cfiBlock0 Using cfiCommon0
          CFI Function InitBoard
        CODE
//  125 {
        FUNCALL InitBoard, osal_int_disable
        LOCFRAME ISTACK, 0, STACK
        LOCFRAME PSTACK, 0, STACK
        LOCFRAME XSTACK, 9, STACK
        LOCFRAME IOVERLAY, 0, STATIC
        LOCFRAME DOVERLAY, 0, STATIC
        ARGFRAME ISTACK, 0, STACK
        ARGFRAME PSTACK, 0, STACK
        ARGFRAME XSTACK, 9, STACK
        ARGFRAME IOVERLAY, 0, STATIC
        ARGFRAME DOVERLAY, 0, STATIC
        FUNCALL InitBoard, ChkReset
        LOCFRAME ISTACK, 0, STACK
        LOCFRAME PSTACK, 0, STACK
        LOCFRAME XSTACK, 9, STACK
        LOCFRAME IOVERLAY, 0, STATIC
        LOCFRAME DOVERLAY, 0, STATIC
        ARGFRAME ISTACK, 0, STACK
        ARGFRAME PSTACK, 0, STACK
        ARGFRAME XSTACK, 9, STACK
        ARGFRAME IOVERLAY, 0, STATIC
        ARGFRAME DOVERLAY, 0, STATIC
        FUNCALL InitBoard, HalKeyConfig
        LOCFRAME ISTACK, 0, STACK
        LOCFRAME PSTACK, 0, STACK
        LOCFRAME XSTACK, 9, STACK
        LOCFRAME IOVERLAY, 0, STATIC
        LOCFRAME DOVERLAY, 0, STATIC
        ARGFRAME ISTACK, 0, STACK
        ARGFRAME PSTACK, 0, STACK
        ARGFRAME XSTACK, 9, STACK
        ARGFRAME IOVERLAY, 0, STATIC
        ARGFRAME DOVERLAY, 0, STATIC
        MOV     A,#-0x9
        LCALL   ?BANKED_ENTER_XDATA
          CFI DPH0 load(1, XDATA, add(CFA_XSP16, literal(-1)))
          CFI DPL0 load(1, XDATA, add(CFA_XSP16, literal(-2)))
          CFI ?BRET_EXT load(1, XDATA, add(CFA_XSP16, literal(-3)))
          CFI ?RET_HIGH load(1, XDATA, add(CFA_XSP16, literal(-4)))
          CFI ?RET_LOW load(1, XDATA, add(CFA_XSP16, literal(-5)))
          CFI R7 load(1, XDATA, add(CFA_XSP16, literal(-6)))
          CFI V0 load(1, XDATA, add(CFA_XSP16, literal(-7)))
          CFI VB load(1, XDATA, add(CFA_XSP16, literal(-8)))
          CFI R6 load(1, XDATA, add(CFA_XSP16, literal(-9)))
          CFI CFA_SP SP+0
          CFI CFA_XSP16 add(XSP16, 9)
        ; Saved register size: 9
        ; Auto size: 0
        MOV     A,R1
        MOV     R6,A
//  126   if ( level == OB_COLD )
        MOV     A,R6
        JNZ     ??InitBoard_0
//  127   {
//  128     // IAR does not zero-out this byte below the XSTACK.
//  129     *(uint8 *)0x0 = 0;
        MOV     DPTR,#0x0
        MOV     A,#0x0
        MOVX    @DPTR,A
//  130     // Interrupts off
//  131     osal_int_disable( INTS_ALL );
        ; Setup parameters for call to function osal_int_disable
        MOV     R1,#-0x1
        LCALL   `??osal_int_disable::?relay`; Banked call to: osal_int_disable
        MOV     A,R1
//  132     // Check for Brown-Out reset
//  133     ChkReset();
        ; Setup parameters for call to function ChkReset
        LCALL   `??ChkReset::?relay` ; Banked call to: ChkReset
        SJMP    ??InitBoard_1
//  134   }
//  135   else  // !OB_COLD
//  136   {
//  137     /* Initialize Key stuff */
//  138     #if defined (ISR_KEYINTERRUPT)
//  139     HalKeyConfig(HAL_KEY_INTERRUPT_ENABLE , OnBoard_KeyCallback);
//  140     #else
//  141     HalKeyConfig(HAL_KEY_INTERRUPT_DISABLE, OnBoard_KeyCallback);
??InitBoard_0:
        ; Setup parameters for call to function HalKeyConfig
        MOV     R2,#`??OnBoard_KeyCallback::?relay` & 0xff
        MOV     R3,#(`??OnBoard_KeyCallback::?relay` >> 8) & 0xff
        MOV     R1,#0x0
        LCALL   `??HalKeyConfig::?relay`; Banked call to: HalKeyConfig
//  142     #endif
//  143   }
//  144 }
??InitBoard_1:
        MOV     R7,#0x1
        LJMP    ?BANKED_LEAVE_XDATA
          CFI R6 SameValue
          CFI VB SameValue
          CFI V0 SameValue
          CFI R7 SameValue
          CFI ?RET_LOW Frame(CFA_SP, 1)
          CFI ?RET_HIGH Frame(CFA_SP, 2)
          CFI ?BRET_EXT Frame(CFA_SP, 3)
          CFI DPL0 SameValue
          CFI DPH0 SameValue
          CFI CFA_SP SP+-3
          CFI CFA_XSP16 XSP16+0
          CFI EndBlock cfiBlock0
//  145 
//  146 /*********************************************************************
//  147  * @fn      ChkReset()
//  148  * @brief   Check reset bits - if reset cause is unknown, assume a
//  149  *          brown-out (low power), assume batteries are not reliable,
//  150  *          hang in a loop and sequence through the LEDs.
//  151  * @param   None
//  152  * @return  None
//  153  *********************************************************************/

        RSEG BANKED_CODE:CODE:NOROOT(0)
//  154 void ChkReset( void )
ChkReset:
          CFI Block cfiBlock1 Using cfiCommon0
          CFI Function ChkReset
        CODE
//  155 {
        FUNCALL ChkReset, halAssertHandler
        LOCFRAME ISTACK, 2, STACK
        LOCFRAME PSTACK, 0, STACK
        LOCFRAME XSTACK, 0, STACK
        LOCFRAME IOVERLAY, 0, STATIC
        LOCFRAME DOVERLAY, 0, STATIC
        ARGFRAME ISTACK, 2, STACK
        ARGFRAME PSTACK, 0, STACK
        ARGFRAME XSTACK, 0, STACK
        ARGFRAME IOVERLAY, 0, STATIC
        ARGFRAME DOVERLAY, 0, STATIC
        PUSH    DPL
          CFI DPL0 Frame(CFA_SP, 4)
          CFI CFA_SP SP+-4
        PUSH    DPH
          CFI DPH0 Frame(CFA_SP, 5)
          CFI CFA_SP SP+-5
        ; Saved register size: 2
        ; Auto size: 0
//  156   uint8 rib;
//  157 
//  158   // Isolate reset indicator bits
//  159   rib = SLEEPSTA & LRESET;
        MOV     A,0x9d
        ANL     A,#0x18
        MOV     R0,A
//  160 
//  161   if ( rib == RESETPO )
        MOV     A,R0
        JZ      ??ChkReset_0
//  162   {
//  163     // Put code here to handle Power-On reset
//  164   }
//  165   else if ( rib == RESETEX )
        MOV     A,#0x8
        XRL     A,R0
        JZ      ??ChkReset_0
//  166   {
//  167     // Put code here to handle External reset
//  168   }
//  169   else if ( rib == RESETWD )
        MOV     A,#0x10
        XRL     A,R0
        JZ      ??ChkReset_0
//  170   {
//  171     // Put code here to handle WatchDog reset
//  172   }
//  173   else  // Unknown reason - not expected.
//  174   {
//  175     HAL_ASSERT(0);
        ; Setup parameters for call to function halAssertHandler
        LCALL   `??halAssertHandler::?relay`; Banked call to: halAssertHandler
//  176   }
//  177 }
??ChkReset_0:
        POP     DPH
          CFI DPH0 SameValue
          CFI CFA_SP SP+-4
        POP     DPL
          CFI DPL0 SameValue
          CFI CFA_SP SP+-3
        LJMP    ?BRET
          CFI EndBlock cfiBlock1
        REQUIRE SLEEPSTA
//  178 
//  179 /*********************************************************************
//  180  *                        "Keyboard" Support
//  181  *********************************************************************/
//  182 
//  183 /*********************************************************************
//  184  * Keyboard Register function
//  185  *
//  186  * The keyboard handler is setup to send all keyboard changes to
//  187  * one task (if a task is registered).
//  188  *
//  189  * If a task registers, it will get all the keys. You can change this
//  190  * to register for individual keys.
//  191  *********************************************************************/

        RSEG BANKED_CODE:CODE:NOROOT(0)
//  192 uint8 RegisterForKeys( uint8 task_id )
RegisterForKeys:
          CFI Block cfiBlock2 Using cfiCommon0
          CFI Function RegisterForKeys
        CODE
//  193 {
        PUSH    DPL
          CFI DPL0 Frame(CFA_SP, 4)
          CFI CFA_SP SP+-4
        PUSH    DPH
          CFI DPH0 Frame(CFA_SP, 5)
          CFI CFA_SP SP+-5
        ; Saved register size: 2
        ; Auto size: 0
        MOV     A,R1
        MOV     R0,A
//  194   // Allow only the first task
//  195   if ( registeredKeysTaskID == NO_TASK_ID )
        MOV     DPTR,#registeredKeysTaskID
        MOVX    A,@DPTR
        XRL     A,#0xff
        JNZ     ??RegisterForKeys_0
//  196   {
//  197     registeredKeysTaskID = task_id;
        MOV     A,R0
        MOV     DPTR,#registeredKeysTaskID
        MOVX    @DPTR,A
//  198     return ( true );
        MOV     R1,#0x1
        SJMP    ??RegisterForKeys_1
//  199   }
//  200   else
//  201     return ( false );
??RegisterForKeys_0:
        MOV     R1,#0x0
??RegisterForKeys_1:
        POP     DPH
          CFI DPH0 SameValue
          CFI CFA_SP SP+-4
        POP     DPL
          CFI DPL0 SameValue
          CFI CFA_SP SP+-3
        LJMP    ?BRET
//  202 }
          CFI EndBlock cfiBlock2
//  203 
//  204 /*********************************************************************
//  205  * @fn      OnBoard_SendKeys
//  206  *
//  207  * @brief   Send "Key Pressed" message to application.
//  208  *
//  209  * @param   keys  - keys that were pressed
//  210  *          state - shifted
//  211  *
//  212  * @return  status
//  213  *********************************************************************/

        RSEG BANKED_CODE:CODE:NOROOT(0)
//  214 uint8 OnBoard_SendKeys( uint8 keys, uint8 state )
OnBoard_SendKeys:
          CFI Block cfiBlock3 Using cfiCommon0
          CFI Function OnBoard_SendKeys
        CODE
//  215 {
        FUNCALL OnBoard_SendKeys, osal_msg_allocate
        LOCFRAME ISTACK, 0, STACK
        LOCFRAME PSTACK, 0, STACK
        LOCFRAME XSTACK, 10, STACK
        LOCFRAME IOVERLAY, 0, STATIC
        LOCFRAME DOVERLAY, 0, STATIC
        ARGFRAME ISTACK, 0, STACK
        ARGFRAME PSTACK, 0, STACK
        ARGFRAME XSTACK, 10, STACK
        ARGFRAME IOVERLAY, 0, STATIC
        ARGFRAME DOVERLAY, 0, STATIC
        FUNCALL OnBoard_SendKeys, osal_msg_send
        LOCFRAME ISTACK, 0, STACK
        LOCFRAME PSTACK, 0, STACK
        LOCFRAME XSTACK, 10, STACK
        LOCFRAME IOVERLAY, 0, STATIC
        LOCFRAME DOVERLAY, 0, STATIC
        ARGFRAME ISTACK, 0, STACK
        ARGFRAME PSTACK, 0, STACK
        ARGFRAME XSTACK, 10, STACK
        ARGFRAME IOVERLAY, 0, STATIC
        ARGFRAME DOVERLAY, 0, STATIC
        REQUIRE ?V0
        REQUIRE ?V1
        MOV     A,#-0xa
        LCALL   ?BANKED_ENTER_XDATA
          CFI DPH0 load(1, XDATA, add(CFA_XSP16, literal(-1)))
          CFI DPL0 load(1, XDATA, add(CFA_XSP16, literal(-2)))
          CFI ?BRET_EXT load(1, XDATA, add(CFA_XSP16, literal(-3)))
          CFI ?RET_HIGH load(1, XDATA, add(CFA_XSP16, literal(-4)))
          CFI ?RET_LOW load(1, XDATA, add(CFA_XSP16, literal(-5)))
          CFI R7 load(1, XDATA, add(CFA_XSP16, literal(-6)))
          CFI V1 load(1, XDATA, add(CFA_XSP16, literal(-7)))
          CFI V0 load(1, XDATA, add(CFA_XSP16, literal(-8)))
          CFI VB load(1, XDATA, add(CFA_XSP16, literal(-9)))
          CFI R6 load(1, XDATA, add(CFA_XSP16, literal(-10)))
          CFI CFA_SP SP+0
          CFI CFA_XSP16 add(XSP16, 10)
        ; Saved register size: 10
        ; Auto size: 0
        MOV     A,R1
        MOV     R6,A
        MOV     A,R2
        MOV     R7,A
//  216   keyChange_t *msgPtr;
//  217 
//  218   if ( registeredKeysTaskID != NO_TASK_ID )
        MOV     DPTR,#registeredKeysTaskID
        MOVX    A,@DPTR
        XRL     A,#0xff
        JZ      ??OnBoard_SendKeys_0
//  219   {
//  220     // Send the address to the task
//  221     msgPtr = (keyChange_t *)osal_msg_allocate( sizeof(keyChange_t) );
        ; Setup parameters for call to function osal_msg_allocate
        MOV     R2,#0x4
        MOV     R3,#0x0
        LCALL   `??osal_msg_allocate::?relay`; Banked call to: osal_msg_allocate
        MOV     ?V0,R2
        MOV     ?V1,R3
        MOV     R2,?V0
        MOV     R3,?V1
//  222     if ( msgPtr )
        MOV     A,R2
        ORL     A,R3
        JZ      ??OnBoard_SendKeys_1
//  223     {
//  224       msgPtr->hdr.event = KEY_CHANGE;
        MOV     DPL,R2
        MOV     DPH,R3
        MOV     A,#-0x40
        MOVX    @DPTR,A
//  225       msgPtr->state = state;
        MOV     A,R7
        PUSH    A
          CFI CFA_SP SP+-1
        MOV     DPL,R2
        MOV     DPH,R3
        INC     DPTR
        INC     DPTR
        POP     A
          CFI CFA_SP SP+0
        MOVX    @DPTR,A
//  226       msgPtr->keys = keys;
        MOV     A,R6
        PUSH    A
          CFI CFA_SP SP+-1
        MOV     DPL,R2
        MOV     DPH,R3
        INC     DPTR
        INC     DPTR
        INC     DPTR
        POP     A
          CFI CFA_SP SP+0
        MOVX    @DPTR,A
//  227 
//  228       osal_msg_send( registeredKeysTaskID, (uint8 *)msgPtr );
        ; Setup parameters for call to function osal_msg_send
        MOV     DPTR,#registeredKeysTaskID
        MOVX    A,@DPTR
        MOV     R1,A
        LCALL   `??osal_msg_send::?relay`; Banked call to: osal_msg_send
        MOV     A,R1
//  229     }
//  230     return ( ZSuccess );
??OnBoard_SendKeys_1:
        MOV     R1,#0x0
        SJMP    ??OnBoard_SendKeys_2
//  231   }
//  232   else
//  233     return ( ZFailure );
??OnBoard_SendKeys_0:
        MOV     R1,#0x1
??OnBoard_SendKeys_2:
        MOV     R7,#0x2
        LJMP    ?BANKED_LEAVE_XDATA
          CFI R6 SameValue
          CFI VB SameValue
          CFI V0 SameValue
          CFI V1 SameValue
          CFI R7 SameValue
          CFI ?RET_LOW Frame(CFA_SP, 1)
          CFI ?RET_HIGH Frame(CFA_SP, 2)
          CFI ?BRET_EXT Frame(CFA_SP, 3)
          CFI DPL0 SameValue
          CFI DPH0 SameValue
          CFI CFA_SP SP+-3
          CFI CFA_XSP16 XSP16+0
//  234 }
          CFI EndBlock cfiBlock3
//  235 
//  236 /*********************************************************************
//  237  * @fn      OnBoard_KeyCallback
//  238  *
//  239  * @brief   Callback service for keys
//  240  *
//  241  * @param   keys  - keys that were pressed
//  242  *          state - shifted
//  243  *
//  244  * @return  void
//  245  *********************************************************************/

        RSEG BANKED_CODE:CODE:NOROOT(0)
//  246 void OnBoard_KeyCallback ( uint8 keys, uint8 state )
OnBoard_KeyCallback:
          CFI Block cfiBlock4 Using cfiCommon0
          CFI Function OnBoard_KeyCallback
        CODE
//  247 {
        FUNCALL OnBoard_KeyCallback, OnBoard_SendKeys
        LOCFRAME ISTACK, 0, STACK
        LOCFRAME PSTACK, 0, STACK
        LOCFRAME XSTACK, 9, STACK
        LOCFRAME IOVERLAY, 0, STATIC
        LOCFRAME DOVERLAY, 0, STATIC
        ARGFRAME ISTACK, 0, STACK
        ARGFRAME PSTACK, 0, STACK
        ARGFRAME XSTACK, 9, STACK
        ARGFRAME IOVERLAY, 0, STATIC
        ARGFRAME DOVERLAY, 0, STATIC
        MOV     A,#-0x9
        LCALL   ?BANKED_ENTER_XDATA
          CFI DPH0 load(1, XDATA, add(CFA_XSP16, literal(-1)))
          CFI DPL0 load(1, XDATA, add(CFA_XSP16, literal(-2)))
          CFI ?BRET_EXT load(1, XDATA, add(CFA_XSP16, literal(-3)))
          CFI ?RET_HIGH load(1, XDATA, add(CFA_XSP16, literal(-4)))
          CFI ?RET_LOW load(1, XDATA, add(CFA_XSP16, literal(-5)))
          CFI R7 load(1, XDATA, add(CFA_XSP16, literal(-6)))
          CFI V0 load(1, XDATA, add(CFA_XSP16, literal(-7)))
          CFI VB load(1, XDATA, add(CFA_XSP16, literal(-8)))
          CFI R6 load(1, XDATA, add(CFA_XSP16, literal(-9)))
          CFI CFA_SP SP+0
          CFI CFA_XSP16 add(XSP16, 9)
        ; Saved register size: 9
        ; Auto size: 0
        MOV     A,R1
        MOV     R7,A
        MOV     A,R2
        MOV     R6,A
//  248   if ( OnBoard_SendKeys( keys, state ) != ZSuccess )
        ; Setup parameters for call to function OnBoard_SendKeys
        MOV     A,R6
        MOV     R2,A
        MOV     A,R7
        MOV     R1,A
        LCALL   `??OnBoard_SendKeys::?relay`; Banked call to: OnBoard_SendKeys
        MOV     A,R1
//  249   {
//  250     // Process SW1 here
//  251     if ( keys & HAL_KEY_SW_1 )  // Switch 1
//  252     {
//  253     }
//  254     // Process SW2 here
//  255     if ( keys & HAL_KEY_SW_2 )  // Switch 2
//  256     {
//  257     }
//  258     // Process SW3 here
//  259     if ( keys & HAL_KEY_SW_3 )  // Switch 3
//  260     {
//  261     }
//  262     // Process SW4 here
//  263     if ( keys & HAL_KEY_SW_4 )  // Switch 4
//  264     {
//  265     }
//  266     // Process SW5 here
//  267     if ( keys & HAL_KEY_SW_5 )  // Switch 5
//  268     {
//  269     }
//  270     // Process SW6 here
//  271     if ( keys & HAL_KEY_SW_6 )  // Switch 6
//  272     {
//  273     }
//  274   }
//  275 }
        MOV     R7,#0x1
        LJMP    ?BANKED_LEAVE_XDATA
          CFI R6 SameValue
          CFI VB SameValue
          CFI V0 SameValue
          CFI R7 SameValue
          CFI ?RET_LOW Frame(CFA_SP, 1)
          CFI ?RET_HIGH Frame(CFA_SP, 2)
          CFI ?BRET_EXT Frame(CFA_SP, 3)
          CFI DPL0 SameValue
          CFI DPH0 SameValue
          CFI CFA_SP SP+-3
          CFI CFA_XSP16 XSP16+0
          CFI EndBlock cfiBlock4
//  276 
//  277 /*********************************************************************
//  278  * @fn      OnBoard_stack_used
//  279  *
//  280  * @brief   Runs through the stack looking for touched memory.
//  281  *
//  282  * @param   none
//  283  *
//  284  * @return  Maximum number of bytes used by the stack.
//  285  *********************************************************************/

        RSEG BANKED_CODE:CODE:NOROOT(0)
//  286 uint16 OnBoard_stack_used(void)
OnBoard_stack_used:
          CFI Block cfiBlock5 Using cfiCommon0
          CFI Function OnBoard_stack_used
        CODE
//  287 {
        PUSH    DPL
          CFI DPL0 Frame(CFA_SP, 4)
          CFI CFA_SP SP+-4
        PUSH    DPH
          CFI DPH0 Frame(CFA_SP, 5)
          CFI CFA_SP SP+-5
        ; Saved register size: 2
        ; Auto size: 0
//  288   uint8 const *ptr;
//  289   uint8 cnt = 0;
        MOV     R0,#0x0
//  290 
//  291   for (ptr = CSTACK_END; ptr > CSTACK_BEG; ptr--)
        MOV     DPL,#(SFE(XSTACK) + 255) & 0xff
        MOV     DPH,#((SFE(XSTACK) - 1) >> 8) & 0xff
        SJMP    ??OnBoard_stack_used_0
//  292   {
//  293     if (STACK_INIT_VALUE == *ptr)
//  294     {
//  295       if (++cnt >= MIN_RAM_INIT)
//  296       {
//  297         ptr += MIN_RAM_INIT;
//  298         break;
//  299       }
//  300     }
//  301     else
//  302     {
//  303       cnt = 0;
??OnBoard_stack_used_1:
        MOV     R0,#0x0
//  304     }
??OnBoard_stack_used_2:
        MOV     A,DPL
        ADD     A,#-0x1
        MOV     DPL,A
        MOV     A,DPH
        ADDC    A,#-0x1
        MOV     DPH,A
??OnBoard_stack_used_0:
        CLR     C
        MOV     A,#SFB(XSTACK) & 0xff
        SUBB    A,DPL
        MOV     A,#(SFB(XSTACK) >> 8) & 0xff
        SUBB    A,DPH
        JNC     ??OnBoard_stack_used_3
        MOVX    A,@DPTR
        XRL     A,#0xcd
        JNZ     ??OnBoard_stack_used_1
        INC     R0
        MOV     A,R0
        CLR     C
        SUBB    A,#0xc
        JC      ??OnBoard_stack_used_2
        MOV     A,DPL
        ADD     A,#0xc
        MOV     DPL,A
        JNC     ??OnBoard_stack_used_3
        INC     DPH
//  305   }
//  306 
//  307   return (uint16)(CSTACK_END - ptr + 1);
??OnBoard_stack_used_3:
        MOV     A,#(SFE(XSTACK) + 255) & 0xff
        CLR     C
        SUBB    A,DPL
        MOV     R0,A
        MOV     A,#((SFE(XSTACK) - 1) >> 8) & 0xff
        SUBB    A,DPH
        MOV     R1,A
        MOV     A,R0
        ADD     A,#0x1
        MOV     R2,A
        CLR     A
        ADDC    A,R1
        MOV     R3,A
        POP     DPH
          CFI DPH0 SameValue
          CFI CFA_SP SP+-4
        POP     DPL
          CFI DPL0 SameValue
          CFI CFA_SP SP+-3
        LJMP    ?BRET
//  308 }
          CFI EndBlock cfiBlock5
//  309 
//  310 /*********************************************************************
//  311  * @fn      _itoa
//  312  *
//  313  * @brief   convert a 16bit number to ASCII
//  314  *
//  315  * @param   num -
//  316  *          buf -
//  317  *          radix -
//  318  *
//  319  * @return  void
//  320  *
//  321  *********************************************************************/

        RSEG BANKED_CODE:CODE:NOROOT(0)
//  322 void _itoa(uint16 num, uint8 *buf, uint8 radix)
_itoa:
          CFI Block cfiBlock6 Using cfiCommon0
          CFI Function _itoa
        CODE
//  323 {
        REQUIRE ?V0
        REQUIRE ?V1
        REQUIRE ?V2
        REQUIRE ?V3
        REQUIRE ?V4
        REQUIRE ?V5
        MOV     A,#-0xe
        LCALL   ?BANKED_ENTER_XDATA
          CFI DPH0 load(1, XDATA, add(CFA_XSP16, literal(-1)))
          CFI DPL0 load(1, XDATA, add(CFA_XSP16, literal(-2)))
          CFI ?BRET_EXT load(1, XDATA, add(CFA_XSP16, literal(-3)))
          CFI ?RET_HIGH load(1, XDATA, add(CFA_XSP16, literal(-4)))
          CFI ?RET_LOW load(1, XDATA, add(CFA_XSP16, literal(-5)))
          CFI R7 load(1, XDATA, add(CFA_XSP16, literal(-6)))
          CFI V5 load(1, XDATA, add(CFA_XSP16, literal(-7)))
          CFI V4 load(1, XDATA, add(CFA_XSP16, literal(-8)))
          CFI V3 load(1, XDATA, add(CFA_XSP16, literal(-9)))
          CFI V2 load(1, XDATA, add(CFA_XSP16, literal(-10)))
          CFI V1 load(1, XDATA, add(CFA_XSP16, literal(-11)))
          CFI V0 load(1, XDATA, add(CFA_XSP16, literal(-12)))
          CFI VB load(1, XDATA, add(CFA_XSP16, literal(-13)))
          CFI R6 load(1, XDATA, add(CFA_XSP16, literal(-14)))
          CFI CFA_SP SP+0
          CFI CFA_XSP16 add(XSP16, 14)
        ; Saved register size: 14
        ; Auto size: 5
        MOV     A,#-0x5
        LCALL   ?ALLOC_XSTACK8
          CFI CFA_XSP16 add(XSP16, 19)
        MOV     A,R2
        MOV     R6,A
        MOV     A,R3
        MOV     R7,A
        MOV     ?V3,R1
//  324   char c,i;
//  325   uint8 *p, rst[5];
//  326 
//  327   p = rst;
        MOV     R0,?XSP + 0
        MOV     R1,?XSP + 1
        MOV     ?V4,R0
        MOV     ?V5,R1
        MOV     ?V0,?V4
        MOV     ?V1,?V5
//  328   for ( i=0; i<5; i++,p++ )
        MOV     ?V2,#0x0
        SJMP    ??_itoa_0
??_itoa_1:
        INC     ?V2
        MOV     DPL,?V0
        MOV     DPH,?V1
        INC     DPTR
        MOV     ?V0,DPL
        MOV     ?V1,DPH
??_itoa_0:
        MOV     A,?V2
        CLR     C
        SUBB    A,#0x5
        JNC     ??_itoa_2
//  329   {
//  330     c = num % radix;  // Isolate a digit
        MOV     A,R6
        MOV     R0,A
        MOV     A,R7
        MOV     R1,A
        MOV     R2,?V3
        MOV     R3,#0x0
        LCALL   ?US_DIV_MOD
        MOV     A,R2
        MOV     R0,A
//  331     *p = c + (( c < 10 ) ? '0' : '7');  // Convert to Ascii
        MOV     A,R0
        CLR     C
        SUBB    A,#0xa
        JNC     ??_itoa_3
        MOV     R2,#0x30
        MOV     R3,#0x0
        SJMP    ??_itoa_4
??_itoa_3:
        MOV     R2,#0x37
        MOV     R3,#0x0
??_itoa_4:
        MOV     A,R2
        ADD     A,R0
        PUSH    A
          CFI CFA_SP SP+-1
        MOV     DPL,?V0
        MOV     DPH,?V1
        POP     A
          CFI CFA_SP SP+0
        MOVX    @DPTR,A
//  332     num /= radix;
        MOV     A,R6
        MOV     R0,A
        MOV     A,R7
        MOV     R1,A
        MOV     R2,?V3
        MOV     R3,#0x0
        LCALL   ?US_DIV_MOD
        MOV     ?V4,R0
        MOV     ?V5,R1
        MOV     R6,?V4
        MOV     R7,?V5
//  333     if ( !num )
        MOV     A,R6
        ORL     A,R7
        JNZ     ??_itoa_1
//  334       break;
//  335   }
//  336 
//  337   for ( c=0 ; c<=i; c++ )
??_itoa_2:
        MOV     R0,#0x0
        SJMP    ??_itoa_5
//  338     *buf++ = *p--;  // Reverse character order
??_itoa_6:
        MOV     DPL,?V0
        MOV     DPH,?V1
        MOVX    A,@DPTR
        PUSH    A
          CFI CFA_SP SP+-1
        MOV     DPL,R4
        MOV     DPH,R5
        POP     A
          CFI CFA_SP SP+0
        MOVX    @DPTR,A
        MOV     A,?V0
        ADD     A,#-0x1
        MOV     ?V0,A
        MOV     A,?V1
        ADDC    A,#-0x1
        MOV     ?V1,A
        MOV     DPL,R4
        MOV     DPH,R5
        INC     DPTR
        MOV     R4,DPL
        MOV     R5,DPH
        INC     R0
??_itoa_5:
        MOV     A,?V2
        CLR     C
        SUBB    A,R0
        JNC     ??_itoa_6
//  339 
//  340   *buf = '\0';
        MOV     DPL,R4
        MOV     DPH,R5
        MOV     A,#0x0
        MOVX    @DPTR,A
//  341 }
        MOV     A,#0x5
        LCALL   ?DEALLOC_XSTACK8
          CFI CFA_XSP16 add(XSP16, 14)
        MOV     R7,#0x6
        LJMP    ?BANKED_LEAVE_XDATA
          CFI R6 SameValue
          CFI VB SameValue
          CFI V0 SameValue
          CFI V1 SameValue
          CFI V2 SameValue
          CFI V3 SameValue
          CFI V4 SameValue
          CFI V5 SameValue
          CFI R7 SameValue
          CFI ?RET_LOW Frame(CFA_SP, 1)
          CFI ?RET_HIGH Frame(CFA_SP, 2)
          CFI ?BRET_EXT Frame(CFA_SP, 3)
          CFI DPL0 SameValue
          CFI DPH0 SameValue
          CFI CFA_SP SP+-3
          CFI CFA_XSP16 XSP16+0
          CFI EndBlock cfiBlock6
//  342 
//  343 /*********************************************************************
//  344  * @fn        Onboard_rand
//  345  *
//  346  * @brief    Random number generator
//  347  *
//  348  * @param   none
//  349  *
//  350  * @return  uint16 - new random number
//  351  *
//  352  *********************************************************************/

        RSEG BANKED_CODE:CODE:NOROOT(0)
//  353 uint16 Onboard_rand( void )
Onboard_rand:
          CFI Block cfiBlock7 Using cfiCommon0
          CFI Function Onboard_rand
        CODE
//  354 {
        FUNCALL Onboard_rand, macMcuRandomWord
        LOCFRAME ISTACK, 2, STACK
        LOCFRAME PSTACK, 0, STACK
        LOCFRAME XSTACK, 0, STACK
        LOCFRAME IOVERLAY, 0, STATIC
        LOCFRAME DOVERLAY, 0, STATIC
        ARGFRAME ISTACK, 2, STACK
        ARGFRAME PSTACK, 0, STACK
        ARGFRAME XSTACK, 0, STACK
        ARGFRAME IOVERLAY, 0, STATIC
        ARGFRAME DOVERLAY, 0, STATIC
        PUSH    DPL
          CFI DPL0 Frame(CFA_SP, 4)
          CFI CFA_SP SP+-4
        PUSH    DPH
          CFI DPH0 Frame(CFA_SP, 5)
          CFI CFA_SP SP+-5
        ; Saved register size: 2
        ; Auto size: 0
//  355   return ( MAC_RADIO_RANDOM_WORD() );
        ; Setup parameters for call to function macMcuRandomWord
        LCALL   `??macMcuRandomWord::?relay`; Banked call to: macMcuRandomWord
        POP     DPH
          CFI DPH0 SameValue
          CFI CFA_SP SP+-4
        POP     DPL
          CFI DPL0 SameValue
          CFI CFA_SP SP+-3
        LJMP    ?BRET
//  356 }
          CFI EndBlock cfiBlock7
//  357 
//  358 /*********************************************************************
//  359  * @fn        Onboard_wait
//  360  *
//  361  * @brief    Delay wait
//  362  *
//  363  * @param   uint16 - time to wait
//  364  *
//  365  * @return  none
//  366  *
//  367  *********************************************************************/

        RSEG BANKED_CODE:CODE:NOROOT(0)
//  368 void Onboard_wait( uint16 timeout )
Onboard_wait:
          CFI Block cfiBlock8 Using cfiCommon0
          CFI Function Onboard_wait
        CODE
//  369 {
        ; Saved register size: 0
        ; Auto size: 0
        SJMP    ??Onboard_wait_0
//  370   while (timeout--)
//  371   {
//  372     asm("NOP");
??Onboard_wait_1:
        NOP
//  373     asm("NOP");
        NOP
//  374     asm("NOP");
        NOP
//  375   }
??Onboard_wait_0:
        MOV     A,R2
        MOV     R0,A
        MOV     A,R3
        MOV     R1,A
        MOV     A,R0
        ADD     A,#-0x1
        MOV     R2,A
        MOV     A,R1
        ADDC    A,#-0x1
        MOV     R3,A
        MOV     A,R0
        ORL     A,R1
        JNZ     ??Onboard_wait_1
//  376 }
        LJMP    ?BRET
          CFI EndBlock cfiBlock8
//  377 
//  378 /*********************************************************************
//  379  * @fn      Onboard_soft_reset
//  380  *
//  381  * @brief   Effect a soft reset.
//  382  *
//  383  * @param   none
//  384  *
//  385  * @return  none
//  386  *
//  387  *********************************************************************/

        RSEG NEAR_CODE:CODE:NOROOT(0)
//  388 __near_func void Onboard_soft_reset( void )
Onboard_soft_reset:
          CFI Block cfiBlock9 Using cfiCommon1
          CFI Function Onboard_soft_reset
        CODE
//  389 {
        ; Saved register size: 0
        ; Auto size: 0
//  390   HAL_DISABLE_INTERRUPTS();
        CLR     0xa8.7
//  391   // Abort all DMA channels to insure that ongoing operations do not
//  392   // interfere with re-configuration.
//  393   DMAARM = 0x80 | 0x1F;
        MOV     0xd6,#-0x61
//  394   asm("LJMP 0x0");
        LJMP 0x0
//  395 }
        RET
          CFI EndBlock cfiBlock9
        REQUIRE _A_IEN0
        REQUIRE DMAARM
//  396 
//  397 #if defined MT_UBL_FUNC
//  398 #if !defined UBL_RC_IMG_PG_BEG
//  399 #define UBL_RC_IMG_PG_BEG  (HAL_SB_CRC_ADDR / HAL_FLASH_PAGE_SIZE)
//  400 #endif
//  401 #if !defined UBL_MD_PG_OFFSET
//  402 #define UBL_MD_PG_OFFSET   (HAL_SB_CRC_ADDR % HAL_FLASH_PAGE_SIZE + 2)
//  403 #endif
//  404 #if !defined UBL_ADDR
//  405 #define UBL_MD_ADDR        (HAL_SB_CRC_ADDR + 2)
//  406 #endif
//  407 
//  408 /*********************************************************************
//  409  * @fn      MT_UblCommandProcessing
//  410  *
//  411  * @brief   Effect a soft reset.
//  412  *
//  413  * @param   pBuf - Pointer to the received MT buffer.
//  414  *
//  415  * @return  MT_RPC_ERR_COMMAND_ID if the MT command is not MT_UBL_ERASE.
//  416  *
//  417  *********************************************************************/
//  418 uint8 MT_UblCommandProcessing(uint8 *pBuf);
//  419 uint8 MT_UblCommandProcessing(uint8 *pBuf)
//  420 {
//  421   if (pBuf[MT_RPC_POS_CMD1] == MT_UBL_ERASE)
//  422   {
//  423     uint16 crc[2];
//  424     HalFlashRead(UBL_RC_IMG_PG_BEG, UBL_MD_PG_OFFSET, (uint8 *)(crc+1), 2);
//  425 
//  426     if (crc[1] != 0)
//  427     {
//  428       crc[1] ^= 0xFFFF;  // Only write to zero bits that are not already zero.
//  429       crc[0] = 0xFFFF;
//  430       HalFlashWrite((UBL_MD_ADDR - 2) / HAL_FLASH_WORD_SIZE, (uint8 *)crc, 1);
//  431     }
//  432 
//  433     Onboard_soft_reset();
//  434   }
//  435 
//  436   return MT_RPC_ERR_COMMAND_ID;
//  437 }
//  438 #endif
//  439 
//  440 /*********************************************************************
//  441  *                    EXTERNAL I/O FUNCTIONS
//  442  *
//  443  * User defined functions to control external devices. Add your code
//  444  * to the following functions to control devices wired to DB outputs.
//  445  *
//  446  *********************************************************************/
//  447 

        RSEG BANKED_CODE:CODE:NOROOT(0)
//  448 void BigLight_On( void )
BigLight_On:
          CFI Block cfiBlock10 Using cfiCommon0
          CFI Function BigLight_On
        CODE
//  449 {
        ; Saved register size: 0
        ; Auto size: 0
//  450   // Put code here to turn on an external light
//  451 }
        LJMP    ?BRET
          CFI EndBlock cfiBlock10
//  452 

        RSEG BANKED_CODE:CODE:NOROOT(0)
//  453 void BigLight_Off( void )
BigLight_Off:
          CFI Block cfiBlock11 Using cfiCommon0
          CFI Function BigLight_Off
        CODE
//  454 {
        ; Saved register size: 0
        ; Auto size: 0
//  455   // Put code here to turn off an external light
//  456 }
        LJMP    ?BRET
          CFI EndBlock cfiBlock11
//  457 

        RSEG BANKED_CODE:CODE:NOROOT(0)
//  458 void BuzzerControl( uint8 on )
BuzzerControl:
          CFI Block cfiBlock12 Using cfiCommon0
          CFI Function BuzzerControl
        CODE
//  459 {
        ; Saved register size: 0
        ; Auto size: 0
//  460   // Put code here to turn a buzzer on/off
//  461   (void)on;
//  462 }
        LJMP    ?BRET
          CFI EndBlock cfiBlock12
//  463 

        RSEG BANKED_CODE:CODE:NOROOT(0)
//  464 void Dimmer( uint8 lvl )
Dimmer:
          CFI Block cfiBlock13 Using cfiCommon0
          CFI Function Dimmer
        CODE
//  465 {
        ; Saved register size: 0
        ; Auto size: 0
//  466   // Put code here to control a dimmer
//  467   (void)lvl;
//  468 }
        LJMP    ?BRET
          CFI EndBlock cfiBlock13
//  469 
//  470 // No dip switches on this board

        RSEG BANKED_CODE:CODE:NOROOT(0)
//  471 uint8 GetUserDipSw( void )
GetUserDipSw:
          CFI Block cfiBlock14 Using cfiCommon0
          CFI Function GetUserDipSw
        CODE
//  472 {
        ; Saved register size: 0
        ; Auto size: 0
//  473   return 0;
        MOV     R1,#0x0
        LJMP    ?BRET
//  474 }
          CFI EndBlock cfiBlock14

        RSEG XDATA_ID:CODE:NOROOT(0)
`?<Initializer for registeredKeysTaskID>`:
        DATA8
        DB 255

        RSEG BANK_RELAYS:CODE:REORDER:NOROOT(0)
`??InitBoard::?relay`:
        CODE
        LCALL   ?BDISPATCH
        DATA24
        DC24    InitBoard

        RSEG BANK_RELAYS:CODE:REORDER:NOROOT(0)
`??ChkReset::?relay`:
        CODE
        LCALL   ?BDISPATCH
        DATA24
        DC24    ChkReset

        RSEG BANK_RELAYS:CODE:REORDER:NOROOT(0)
`??RegisterForKeys::?relay`:
        CODE
        LCALL   ?BDISPATCH
        DATA24
        DC24    RegisterForKeys

        RSEG BANK_RELAYS:CODE:REORDER:NOROOT(0)
`??OnBoard_SendKeys::?relay`:
        CODE
        LCALL   ?BDISPATCH
        DATA24
        DC24    OnBoard_SendKeys

        RSEG BANK_RELAYS:CODE:REORDER:NOROOT(0)
`??OnBoard_KeyCallback::?relay`:
        CODE
        LCALL   ?BDISPATCH
        DATA24
        DC24    OnBoard_KeyCallback

        RSEG BANK_RELAYS:CODE:REORDER:NOROOT(0)
`??OnBoard_stack_used::?relay`:
        CODE
        LCALL   ?BDISPATCH
        DATA24
        DC24    OnBoard_stack_used

        RSEG BANK_RELAYS:CODE:REORDER:NOROOT(0)
`??_itoa::?relay`:
        CODE
        LCALL   ?BDISPATCH
        DATA24
        DC24    _itoa

        RSEG BANK_RELAYS:CODE:REORDER:NOROOT(0)
`??Onboard_rand::?relay`:
        CODE
        LCALL   ?BDISPATCH
        DATA24
        DC24    Onboard_rand

        RSEG BANK_RELAYS:CODE:REORDER:NOROOT(0)
`??Onboard_wait::?relay`:
        CODE
        LCALL   ?BDISPATCH
        DATA24
        DC24    Onboard_wait

        RSEG BANK_RELAYS:CODE:REORDER:NOROOT(0)
`??BigLight_On::?relay`:
        CODE
        LCALL   ?BDISPATCH
        DATA24
        DC24    BigLight_On

        RSEG BANK_RELAYS:CODE:REORDER:NOROOT(0)
`??BigLight_Off::?relay`:
        CODE
        LCALL   ?BDISPATCH
        DATA24
        DC24    BigLight_Off

        RSEG BANK_RELAYS:CODE:REORDER:NOROOT(0)
`??BuzzerControl::?relay`:
        CODE
        LCALL   ?BDISPATCH
        DATA24
        DC24    BuzzerControl

        RSEG BANK_RELAYS:CODE:REORDER:NOROOT(0)
`??Dimmer::?relay`:
        CODE
        LCALL   ?BDISPATCH
        DATA24
        DC24    Dimmer

        RSEG BANK_RELAYS:CODE:REORDER:NOROOT(0)
`??GetUserDipSw::?relay`:
        CODE
        LCALL   ?BDISPATCH
        DATA24
        DC24    GetUserDipSw

        RSEG XSTACK:DATA:REORDER:NOROOT(0)

        END
//  475 
//  476 /*********************************************************************
//  477 *********************************************************************/
// 
//   543 bytes in segment BANKED_CODE
//    84 bytes in segment BANK_RELAYS
//     8 bytes in segment IEEE_ADDRESS_SPACE
//    16 bytes in segment LOCK_BITS_ADDRESS_SPACE
//     9 bytes in segment NEAR_CODE
// 1 932 bytes in segment RESERVED_ADDRESS_SPACE
//     3 bytes in segment SFR_AN
//     1 byte  in segment XDATA_I
//     1 byte  in segment XDATA_ID
//     8 bytes in segment XDATA_Z
// 
//   637 bytes of CODE  memory
//     0 bytes of DATA  memory (+ 3 bytes shared)
// 1 965 bytes of XDATA memory
//
//Errors: none
//Warnings: none
