///////////////////////////////////////////////////////////////////////////////
//
// IAR C/C++ Compiler V9.20.1.2476 for 8051               22/Feb/2017  15:31:02
// Copyright 2004-2015 IAR Systems AB.
// Standalone license - IAR Embedded Workbench for 8051
//
//    Core               =  plain
//    Code model         =  banked
//    Data model         =  large
//    Calling convention =  xdata reentrant
//    Constant location  =  data_rom
//    Dptr setup         =  1,16
//                          
//    Source file        =  
//        C:\Users\koen\ZigBee-Code-WTWS\Components\stack\sapi\sapi.c
//    Command line       =  
//        -f
//        C:\Users\koen\ZigBee-Code-WTWS\Projects\zstack\Samples\DemoApp\CC2530DB\..\..\..\Tools\CC2530DB\f8wCoord.cfg
//        (-DCPU32MHZ -DROOT=__near_func -DMAC_CFG_APP_PENDING_QUEUE=TRUE
//        -DMAC_CFG_TX_DATA_MAX=5 -DMAC_CFG_TX_MAX=8 -DMAC_CFG_RX_MAX=5
//        -DZDO_COORDINATOR -DRTR_NWK) -f
//        C:\Users\koen\ZigBee-Code-WTWS\Projects\zstack\Samples\DemoApp\CC2530DB\..\..\..\Tools\CC2530DB\f8wConfig.cfg
//        (-DZIGBEEPRO -DSECURE=0 -DZG_SECURE_DYNAMIC=0 -DREFLECTOR
//        -DDEFAULT_CHANLIST=0x00002000 -DZDAPP_CONFIG_PAN_ID=0xABCD
//        -DNWK_START_DELAY=100 -DEXTENDED_JOINING_RANDOM_MASK=0x007F
//        -DBEACON_REQUEST_DELAY=100 -DBEACON_REQ_DELAY_MASK=0x00FF
//        -DLINK_STATUS_JITTER_MASK=0x007F -DROUTE_EXPIRY_TIME=30
//        -DAPSC_ACK_WAIT_DURATION_POLLED=3000 -DNWK_INDIRECT_MSG_TIMEOUT=7
//        -DMAX_RREQ_ENTRIES=8 -DAPSC_MAX_FRAME_RETRIES=3
//        -DNWK_MAX_DATA_RETRIES=2 -DMAX_POLL_FAILURE_RETRIES=2 -DMAX_BCAST=9
//        -DAPS_MAX_GROUPS=16 -DMAX_RTG_ENTRIES=40 -DNWK_MAX_BINDING_ENTRIES=4
//        -DMAX_BINDING_CLUSTER_IDS=4 "-DDEFAULT_KEY={'H', 'O', 'G', 'E', 'S',
//        'C', 'H', 'O', 'O', 'L', 'U', 'T', 'R', 'E', 'C', 'H'}"
//        -DMAC_MAX_FRAME_SIZE=116 -DZDNWKMGR_MIN_TRANSMISSIONS=20
//        "-DCONST=const __code" -DGENERIC=__generic -DRFD_RCVC_ALWAYS_ON=FALSE
//        -DPOLL_RATE=1000 -DQUEUED_POLL_RATE=100 -DRESPONSE_POLL_RATE=100)
//        -DREJOIN_POLL_RATE=440
//        C:\Users\koen\ZigBee-Code-WTWS\Components\stack\sapi\sapi.c -D
//        HOLD_AUTO_START -D BUILD_ALL_DEVICES -D REFLECTOR -D NV_INIT -D
//        NV_RESTORE -D HAL_UART=TRUE -lC
//        C:\Users\koen\ZigBee-Code-WTWS\Projects\zstack\Samples\DemoApp\CC2530DB\CoordinatorEB\List\
//        -lA
//        C:\Users\koen\ZigBee-Code-WTWS\Projects\zstack\Samples\DemoApp\CC2530DB\CoordinatorEB\List\
//        --diag_suppress Pe001,Pa010,Pe1665 -o
//        C:\Users\koen\ZigBee-Code-WTWS\Projects\zstack\Samples\DemoApp\CC2530DB\CoordinatorEB\Obj\
//        -e --no_cse --no_unroll --no_inline --no_code_motion --no_tbaa
//        --debug --core=plain --dptr=16,1 --data_model=large
//        --code_model=banked --calling_convention=xdata_reentrant
//        --place_constants=data_rom --nr_virtual_regs 16 -I
//        C:\Users\koen\ZigBee-Code-WTWS\Projects\zstack\Samples\DemoApp\CC2530DB\
//        -I
//        C:\Users\koen\ZigBee-Code-WTWS\Projects\zstack\Samples\DemoApp\CC2530DB\..\Source\
//        -I
//        C:\Users\koen\ZigBee-Code-WTWS\Projects\zstack\Samples\DemoApp\CC2530DB\..\..\..\ZMain\TI2530DB\
//        -I
//        C:\Users\koen\ZigBee-Code-WTWS\Projects\zstack\Samples\DemoApp\CC2530DB\..\..\..\..\..\Components\hal\include\
//        -I
//        C:\Users\koen\ZigBee-Code-WTWS\Projects\zstack\Samples\DemoApp\CC2530DB\..\..\..\..\..\Components\hal\target\CC2530EB\
//        -I
//        C:\Users\koen\ZigBee-Code-WTWS\Projects\zstack\Samples\DemoApp\CC2530DB\..\..\..\..\..\Components\mac\include\
//        -I
//        C:\Users\koen\ZigBee-Code-WTWS\Projects\zstack\Samples\DemoApp\CC2530DB\..\..\..\..\..\Components\mac\high_level\
//        -I
//        C:\Users\koen\ZigBee-Code-WTWS\Projects\zstack\Samples\DemoApp\CC2530DB\..\..\..\..\..\Components\mac\low_level\srf04\
//        -I
//        C:\Users\koen\ZigBee-Code-WTWS\Projects\zstack\Samples\DemoApp\CC2530DB\..\..\..\..\..\Components\mac\low_level\srf04\single_chip\
//        -I
//        C:\Users\koen\ZigBee-Code-WTWS\Projects\zstack\Samples\DemoApp\CC2530DB\..\..\..\..\..\Components\mt\
//        -I
//        C:\Users\koen\ZigBee-Code-WTWS\Projects\zstack\Samples\DemoApp\CC2530DB\..\..\..\..\..\Components\osal\include\
//        -I
//        C:\Users\koen\ZigBee-Code-WTWS\Projects\zstack\Samples\DemoApp\CC2530DB\..\..\..\..\..\Components\services\saddr\
//        -I
//        C:\Users\koen\ZigBee-Code-WTWS\Projects\zstack\Samples\DemoApp\CC2530DB\..\..\..\..\..\Components\services\sdata\
//        -I
//        C:\Users\koen\ZigBee-Code-WTWS\Projects\zstack\Samples\DemoApp\CC2530DB\..\..\..\..\..\Components\stack\af\
//        -I
//        C:\Users\koen\ZigBee-Code-WTWS\Projects\zstack\Samples\DemoApp\CC2530DB\..\..\..\..\..\Components\stack\nwk\
//        -I
//        C:\Users\koen\ZigBee-Code-WTWS\Projects\zstack\Samples\DemoApp\CC2530DB\..\..\..\..\..\Components\stack\sapi\
//        -I
//        C:\Users\koen\ZigBee-Code-WTWS\Projects\zstack\Samples\DemoApp\CC2530DB\..\..\..\..\..\Components\stack\sec\
//        -I
//        C:\Users\koen\ZigBee-Code-WTWS\Projects\zstack\Samples\DemoApp\CC2530DB\..\..\..\..\..\Components\stack\sys\
//        -I
//        C:\Users\koen\ZigBee-Code-WTWS\Projects\zstack\Samples\DemoApp\CC2530DB\..\..\..\..\..\Components\stack\zdo\
//        -I
//        C:\Users\koen\ZigBee-Code-WTWS\Projects\zstack\Samples\DemoApp\CC2530DB\..\..\..\..\..\Components\zmac\
//        -I
//        C:\Users\koen\ZigBee-Code-WTWS\Projects\zstack\Samples\DemoApp\CC2530DB\..\..\..\..\..\Components\zmac\f8w\
//        -Ol --require_prototypes
//    List file          =  
//        C:\Users\koen\ZigBee-Code-WTWS\Projects\zstack\Samples\DemoApp\CC2530DB\CoordinatorEB\List\sapi.s51
//
///////////////////////////////////////////////////////////////////////////////

        NAME sapi

        RTMODEL "__SystemLibrary", "CLib"
        RTMODEL "__calling_convention", "xdata_reentrant"
        RTMODEL "__code_model", "banked"
        RTMODEL "__core", "plain"
        RTMODEL "__data_model", "large"
        RTMODEL "__dptr_size", "16"
        RTMODEL "__extended_stack", "disabled"
        RTMODEL "__location_for_constants", "data"
        RTMODEL "__number_of_dptrs", "1"
        RTMODEL "__rt_version", "1"

        RSEG DOVERLAY:DATA:NOROOT(0)
        RSEG IOVERLAY:IDATA:NOROOT(0)
        RSEG ISTACK:IDATA:NOROOT(0)
        RSEG PSTACK:XDATA:NOROOT(0)
        RSEG XSTACK:XDATA:NOROOT(0)

        EXTERN ?V0
        EXTERN ?V1
        EXTERN ?V2
        EXTERN ?V3
        EXTERN ?V4
        EXTERN ?V5
        EXTERN ?V6
        EXTERN ?V7
        EXTERN ?ALLOC_XSTACK8
        EXTERN ?BANKED_ENTER_XDATA
        EXTERN ?BANKED_LEAVE_XDATA
        EXTERN ?BDISPATCH
        EXTERN ?BRET
        EXTERN ?DEALLOC_XSTACK8
        EXTERN ?PUSH_XSTACK8_X_FOUR
        EXTERN ?PUSH_XSTACK8_X_TWO
        EXTERN ?PUSH_XSTACK_I_FOUR
        EXTERN ?PUSH_XSTACK_I_ONE
        EXTERN ?PUSH_XSTACK_I_THREE
        EXTERN ?PUSH_XSTACK_I_TWO
        EXTERN ?US_SWITCH_SPARSE
        EXTERN ?XSP
        EXTERN ?XSTACK_DISP0_8
        EXTERN ?XSTACK_DISP100_8
        EXTERN ?XSTACK_DISP101_8
        EXTERN ?XSTACK_DISP102_8
        EXTERN __INIT_XDATA_Z

        FUNCTION `??SAPI_AllowBindConfirm::?relay`,0203H
        FUNCTION `??SAPI_BindConfirm::?relay`,0203H
        FUNCTION `??SAPI_FindDeviceConfirm::?relay`,0203H
        PUBLIC `??SAPI_Init::?relay`
        FUNCTION `??SAPI_Init::?relay`,0203H
        PUBLIC `??SAPI_ProcessEvent::?relay`
        FUNCTION `??SAPI_ProcessEvent::?relay`,0203H
        PUBLIC `??SAPI_ProcessZDOMsgs::?relay`
        FUNCTION `??SAPI_ProcessZDOMsgs::?relay`,0203H
        FUNCTION `??SAPI_ReceiveDataIndication::?relay`,0203H
        FUNCTION `??SAPI_SendCback::?relay`,0203H
        FUNCTION `??SAPI_SendDataConfirm::?relay`,0203H
        FUNCTION `??SAPI_StartConfirm::?relay`,0203H
        PUBLIC `??USER_event_loop::?relay`
        FUNCTION `??USER_event_loop::?relay`,0203H
        PUBLIC `??zb_AllowBind::?relay`
        FUNCTION `??zb_AllowBind::?relay`,0203H
        PUBLIC `??zb_BindDevice::?relay`
        FUNCTION `??zb_BindDevice::?relay`,0203H
        PUBLIC `??zb_FindDeviceRequest::?relay`
        FUNCTION `??zb_FindDeviceRequest::?relay`,0203H
        PUBLIC `??zb_GetDeviceInfo::?relay`
        FUNCTION `??zb_GetDeviceInfo::?relay`,0203H
        PUBLIC `??zb_PermitJoiningRequest::?relay`
        FUNCTION `??zb_PermitJoiningRequest::?relay`,0203H
        PUBLIC `??zb_ReadConfiguration::?relay`
        FUNCTION `??zb_ReadConfiguration::?relay`,0203H
        PUBLIC `??zb_SendDataRequest::?relay`
        FUNCTION `??zb_SendDataRequest::?relay`,0203H
        PUBLIC `??zb_StartRequest::?relay`
        FUNCTION `??zb_StartRequest::?relay`,0203H
        PUBLIC `??zb_SystemReset::?relay`
        FUNCTION `??zb_SystemReset::?relay`,0203H
        PUBLIC `??zb_WriteConfiguration::?relay`
        FUNCTION `??zb_WriteConfiguration::?relay`,0203H
        FUNCTION SAPI_AllowBindConfirm,021203H
        ARGFRAME XSTACK, 15, STACK
        ARGFRAME IOVERLAY, 0, STATIC
        ARGFRAME DOVERLAY, 0, STATIC
        LOCFRAME ISTACK, 2, STACK
        FUNCTION SAPI_BindConfirm,021203H
        ARGFRAME XSTACK, 15, STACK
        ARGFRAME IOVERLAY, 0, STATIC
        ARGFRAME DOVERLAY, 0, STATIC
        LOCFRAME XSTACK, 9, STACK
        FUNCTION SAPI_FindDeviceConfirm,021203H
        ARGFRAME XSTACK, 19, STACK
        ARGFRAME IOVERLAY, 0, STATIC
        ARGFRAME DOVERLAY, 0, STATIC
        LOCFRAME XSTACK, 9, STACK
        PUBLIC SAPI_Init
        FUNCTION SAPI_Init,021203H
        ARGFRAME XSTACK, 0, STACK
        LOCFRAME XSTACK, 10, STACK
        PUBLIC SAPI_ProcessEvent
        FUNCTION SAPI_ProcessEvent,0a1603H
        ARGFRAME XSTACK, 0, STACK
        LOCFRAME XSTACK, 19, STACK
        PUBLIC SAPI_ProcessZDOMsgs
        FUNCTION SAPI_ProcessZDOMsgs,0a1203H
        ARGFRAME XSTACK, 15, STACK
        ARGFRAME IOVERLAY, 0, STATIC
        ARGFRAME DOVERLAY, 0, STATIC
        LOCFRAME XSTACK, 23, STACK
        FUNCTION SAPI_ReceiveDataIndication,021203H
        ARGFRAME XSTACK, 19, STACK
        ARGFRAME IOVERLAY, 0, STATIC
        ARGFRAME DOVERLAY, 0, STATIC
        LOCFRAME ISTACK, 2, STACK
        LOCFRAME XSTACK, 4, STACK
        FUNCTION SAPI_SendCback,0a1203H
        ARGFRAME XSTACK, 27, STACK
        ARGFRAME IOVERLAY, 0, STATIC
        ARGFRAME DOVERLAY, 0, STATIC
        LOCFRAME ISTACK, 1, STACK
        LOCFRAME XSTACK, 12, STACK
        FUNCTION SAPI_SendDataConfirm,021203H
        ARGFRAME XSTACK, 15, STACK
        ARGFRAME IOVERLAY, 0, STATIC
        ARGFRAME DOVERLAY, 0, STATIC
        LOCFRAME XSTACK, 9, STACK
        FUNCTION SAPI_StartConfirm,021203H
        ARGFRAME XSTACK, 15, STACK
        ARGFRAME IOVERLAY, 0, STATIC
        ARGFRAME DOVERLAY, 0, STATIC
        LOCFRAME XSTACK, 9, STACK
        PUBLIC USER_event_loop
        FUNCTION USER_event_loop,021603H
        ARGFRAME XSTACK, 0, STACK
        LOCFRAME XSTACK, 9, STACK
        PUBWEAK _A_P0
        PUBWEAK __Constant_fa
        PUBLIC sapi_TaskID
        PUBLIC sapi_epDesc
        PUBLIC tasksArr
        PUBLIC tasksCnt
        PUBLIC tasksEvents
        PUBLIC zb_AllowBind
        FUNCTION zb_AllowBind,0a1203H
        ARGFRAME XSTACK, 0, STACK
        LOCFRAME XSTACK, 16, STACK
        PUBLIC zb_BindDevice
        FUNCTION zb_BindDevice,0a1203H
        ARGFRAME XSTACK, 0, STACK
        LOCFRAME XSTACK, 35, STACK
        PUBLIC zb_FindDeviceRequest
        FUNCTION zb_FindDeviceRequest,021203H
        ARGFRAME XSTACK, 0, STACK
        LOCFRAME XSTACK, 9, STACK
        PUBLIC zb_GetDeviceInfo
        FUNCTION zb_GetDeviceInfo,0a1203H
        ARGFRAME XSTACK, 0, STACK
        LOCFRAME XSTACK, 14, STACK
        PUBLIC zb_PermitJoiningRequest
        FUNCTION zb_PermitJoiningRequest,0203H
        ARGFRAME XSTACK, 0, STACK
        PUBLIC zb_ReadConfiguration
        FUNCTION zb_ReadConfiguration,0a1203H
        ARGFRAME XSTACK, 15, STACK
        ARGFRAME IOVERLAY, 0, STATIC
        ARGFRAME DOVERLAY, 0, STATIC
        LOCFRAME XSTACK, 16, STACK
        PUBLIC zb_SendDataRequest
        FUNCTION zb_SendDataRequest,0a1203H
        ARGFRAME XSTACK, 5, STACK
        LOCFRAME ISTACK, 1, STACK
        LOCFRAME XSTACK, 33, STACK
        PUBLIC zb_StartRequest
        FUNCTION zb_StartRequest,021203H
        ARGFRAME XSTACK, 15, STACK
        ARGFRAME IOVERLAY, 0, STATIC
        ARGFRAME DOVERLAY, 0, STATIC
        LOCFRAME ISTACK, 2, STACK
        LOCFRAME XSTACK, 1, STACK
        PUBLIC zb_SystemReset
        FUNCTION zb_SystemReset,021203H
        ARGFRAME XSTACK, 10, STACK
        ARGFRAME IOVERLAY, 0, STATIC
        ARGFRAME DOVERLAY, 0, STATIC
        PUBLIC zb_WriteConfiguration
        FUNCTION zb_WriteConfiguration,0a1203H
        ARGFRAME XSTACK, 10, STACK
        ARGFRAME IOVERLAY, 0, STATIC
        ARGFRAME DOVERLAY, 0, STATIC
        LOCFRAME XSTACK, 14, STACK
        
          CFI Names cfiNames0
          CFI StackFrame CFA_SP SP IDATA
          CFI StackFrame CFA_PSP16 PSP16 XDATA
          CFI StackFrame CFA_XSP16 XSP16 XDATA
          CFI StaticOverlayFrame CFA_IOVERLAY IOVERLAY
          CFI StaticOverlayFrame CFA_DOVERLAY DOVERLAY
          CFI Resource `PSW.CY`:1, `B.BR0`:1, `B.BR1`:1, `B.BR2`:1, `B.BR3`:1
          CFI Resource `B.BR4`:1, `B.BR5`:1, `B.BR6`:1, `B.BR7`:1, `VB.BR8`:1
          CFI Resource `VB.BR9`:1, `VB.BR10`:1, `VB.BR11`:1, `VB.BR12`:1
          CFI Resource `VB.BR13`:1, `VB.BR14`:1, `VB.BR15`:1, VB:8, B:8, A:8
          CFI Resource PSW:8, DPL0:8, DPH0:8, R0:8, R1:8, R2:8, R3:8, R4:8, R5:8
          CFI Resource R6:8, R7:8, V0:8, V1:8, V2:8, V3:8, V4:8, V5:8, V6:8, V7:8
          CFI Resource V8:8, V9:8, V10:8, V11:8, V12:8, V13:8, V14:8, V15:8, SP:8
          CFI Resource PSPH:8, PSPL:8, PSP16:16, XSPH:8, XSPL:8, XSP16:16
          CFI VirtualResource ?RET:24
          CFI Resource ?BRET_EXT:8
          CFI VirtualResource ?RET_HIGH:8, ?RET_LOW:8
          CFI ResourceParts PSP16 PSPH, PSPL
          CFI ResourceParts XSP16 XSPH, XSPL
          CFI ResourceParts ?RET ?BRET_EXT, ?RET_HIGH, ?RET_LOW
          CFI EndNames cfiNames0
        
          CFI Common cfiCommon0 Using cfiNames0
          CFI CodeAlign 1
          CFI DataAlign -1
          CFI ReturnAddress ?RET CODE
          CFI CFA_DOVERLAY Used
          CFI CFA_IOVERLAY Used
          CFI CFA_SP SP+-3
          CFI CFA_PSP16 PSP16+0
          CFI CFA_XSP16 XSP16+0
          CFI `PSW.CY` SameValue
          CFI `B.BR0` SameValue
          CFI `B.BR1` SameValue
          CFI `B.BR2` SameValue
          CFI `B.BR3` SameValue
          CFI `B.BR4` SameValue
          CFI `B.BR5` SameValue
          CFI `B.BR6` SameValue
          CFI `B.BR7` SameValue
          CFI `VB.BR8` SameValue
          CFI `VB.BR9` SameValue
          CFI `VB.BR10` SameValue
          CFI `VB.BR11` SameValue
          CFI `VB.BR12` SameValue
          CFI `VB.BR13` SameValue
          CFI `VB.BR14` SameValue
          CFI `VB.BR15` SameValue
          CFI VB SameValue
          CFI B Undefined
          CFI A Undefined
          CFI PSW SameValue
          CFI DPL0 SameValue
          CFI DPH0 SameValue
          CFI R0 Undefined
          CFI R1 Undefined
          CFI R2 Undefined
          CFI R3 Undefined
          CFI R4 Undefined
          CFI R5 Undefined
          CFI R6 SameValue
          CFI R7 SameValue
          CFI V0 SameValue
          CFI V1 SameValue
          CFI V2 SameValue
          CFI V3 SameValue
          CFI V4 SameValue
          CFI V5 SameValue
          CFI V6 SameValue
          CFI V7 SameValue
          CFI V8 SameValue
          CFI V9 SameValue
          CFI V10 SameValue
          CFI V11 SameValue
          CFI V12 SameValue
          CFI V13 SameValue
          CFI V14 SameValue
          CFI V15 SameValue
          CFI PSPH Undefined
          CFI PSPL Undefined
          CFI XSPH Undefined
          CFI XSPL Undefined
          CFI ?RET Concat
          CFI ?BRET_EXT Frame(CFA_SP, 3)
          CFI ?RET_HIGH Frame(CFA_SP, 2)
          CFI ?RET_LOW Frame(CFA_SP, 1)
          CFI EndCommon cfiCommon0
        
AF_DataRequest      SYMBOL "AF_DataRequest"
`??AF_DataRequest::?relay` SYMBOL "?relay", AF_DataRequest
APSME_BindRequest   SYMBOL "APSME_BindRequest"
`??APSME_BindRequest::?relay` SYMBOL "?relay", APSME_BindRequest
`?<Name APS_event_loop 4>` SYMBOL "APS_event_loop"
`??APS_event_loop::?relay` SYMBOL "?relay", `?<Name APS_event_loop 4>`
HalKeyRead          SYMBOL "HalKeyRead"
`??HalKeyRead::?relay` SYMBOL "?relay", HalKeyRead
HalLedBlink         SYMBOL "HalLedBlink"
`??HalLedBlink::?relay` SYMBOL "?relay", HalLedBlink
HalLedSet           SYMBOL "HalLedSet"
`??HalLedSet::?relay` SYMBOL "?relay", HalLedSet
`?<Name Hal_ProcessEvent 12>` SYMBOL "Hal_ProcessEvent"
`??Hal_ProcessEvent::?relay` SYMBOL "?relay", `?<Name Hal_ProcessEvent 12>`
NLME_IsAddressBroadcast SYMBOL "NLME_IsAddressBroadcast"
`??NLME_IsAddressBroadcast::?relay` SYMBOL "?relay", NLME_IsAddressBroadcast
RegisterForKeys     SYMBOL "RegisterForKeys"
`??RegisterForKeys::?relay` SYMBOL "?relay", RegisterForKeys
`?<Name ZDApp_event_loop 18>` SYMBOL "ZDApp_event_loop"
`??ZDApp_event_loop::?relay` SYMBOL "?relay", `?<Name ZDApp_event_loop 18>`
ZDOInitDevice       SYMBOL "ZDOInitDevice"
`??ZDOInitDevice::?relay` SYMBOL "?relay", ZDOInitDevice
ZDO_AnyClusterMatches SYMBOL "ZDO_AnyClusterMatches"
`??ZDO_AnyClusterMatches::?relay` SYMBOL "?relay", ZDO_AnyClusterMatches
ZDO_ParseAddrRsp    SYMBOL "ZDO_ParseAddrRsp"
`??ZDO_ParseAddrRsp::?relay` SYMBOL "?relay", ZDO_ParseAddrRsp
ZDO_ParseEPListRsp  SYMBOL "ZDO_ParseEPListRsp"
`??ZDO_ParseEPListRsp::?relay` SYMBOL "?relay", ZDO_ParseEPListRsp
ZDO_RegisterForZDOMsg SYMBOL "ZDO_RegisterForZDOMsg"
`??ZDO_RegisterForZDOMsg::?relay` SYMBOL "?relay", ZDO_RegisterForZDOMsg
ZDP_IEEEAddrReq     SYMBOL "ZDP_IEEEAddrReq"
`??ZDP_IEEEAddrReq::?relay` SYMBOL "?relay", ZDP_IEEEAddrReq
ZDP_MatchDescReq    SYMBOL "ZDP_MatchDescReq"
`??ZDP_MatchDescReq::?relay` SYMBOL "?relay", ZDP_MatchDescReq
ZDP_NwkAddrReq      SYMBOL "ZDP_NwkAddrReq"
`??ZDP_NwkAddrReq::?relay` SYMBOL "?relay", ZDP_NwkAddrReq
afRegister          SYMBOL "afRegister"
`??afRegister::?relay` SYMBOL "?relay", afRegister
afSetMatch          SYMBOL "afSetMatch"
`??afSetMatch::?relay` SYMBOL "?relay", afSetMatch
bindFind            SYMBOL "bindFind"
`??bindFind::?relay` SYMBOL "?relay", bindFind
bindRemoveEntry     SYMBOL "bindRemoveEntry"
`??bindRemoveEntry::?relay` SYMBOL "?relay", bindRemoveEntry
`?<Name macEventLoop 44>` SYMBOL "macEventLoop"
`??macEventLoop::?relay` SYMBOL "?relay", `?<Name macEventLoop 44>`
`?<Name nwk_event_loop 46>` SYMBOL "nwk_event_loop"
`??nwk_event_loop::?relay` SYMBOL "?relay", `?<Name nwk_event_loop 46>`
osal_memcpy         SYMBOL "osal_memcpy"
`??osal_memcpy::?relay` SYMBOL "?relay", osal_memcpy
osal_msg_allocate   SYMBOL "osal_msg_allocate"
`??osal_msg_allocate::?relay` SYMBOL "?relay", osal_msg_allocate
osal_msg_deallocate SYMBOL "osal_msg_deallocate"
`??osal_msg_deallocate::?relay` SYMBOL "?relay", osal_msg_deallocate
osal_msg_receive    SYMBOL "osal_msg_receive"
`??osal_msg_receive::?relay` SYMBOL "?relay", osal_msg_receive
osal_msg_send       SYMBOL "osal_msg_send"
`??osal_msg_send::?relay` SYMBOL "?relay", osal_msg_send
osal_nv_item_len    SYMBOL "osal_nv_item_len"
`??osal_nv_item_len::?relay` SYMBOL "?relay", osal_nv_item_len
osal_nv_read        SYMBOL "osal_nv_read"
`??osal_nv_read::?relay` SYMBOL "?relay", osal_nv_read
osal_nv_write       SYMBOL "osal_nv_write"
`??osal_nv_write::?relay` SYMBOL "?relay", osal_nv_write
osal_set_event      SYMBOL "osal_set_event"
`??osal_set_event::?relay` SYMBOL "?relay", osal_set_event
osal_start_timerEx  SYMBOL "osal_start_timerEx"
`??osal_start_timerEx::?relay` SYMBOL "?relay", osal_start_timerEx
osal_stop_timerEx   SYMBOL "osal_stop_timerEx"
`??osal_stop_timerEx::?relay` SYMBOL "?relay", osal_stop_timerEx
sAddrExtCpy         SYMBOL "sAddrExtCpy"
`??sAddrExtCpy::?relay` SYMBOL "?relay", sAddrExtCpy
zb_AllowBindConfirm SYMBOL "zb_AllowBindConfirm"
`??zb_AllowBindConfirm::?relay` SYMBOL "?relay", zb_AllowBindConfirm
zb_BindConfirm      SYMBOL "zb_BindConfirm"
`??zb_BindConfirm::?relay` SYMBOL "?relay", zb_BindConfirm
zb_FindDeviceConfirm SYMBOL "zb_FindDeviceConfirm"
`??zb_FindDeviceConfirm::?relay` SYMBOL "?relay", zb_FindDeviceConfirm
zb_HandleKeys       SYMBOL "zb_HandleKeys"
`??zb_HandleKeys::?relay` SYMBOL "?relay", zb_HandleKeys
zb_HandleOsalEvent  SYMBOL "zb_HandleOsalEvent"
`??zb_HandleOsalEvent::?relay` SYMBOL "?relay", zb_HandleOsalEvent
zb_ReceiveDataIndication SYMBOL "zb_ReceiveDataIndication"
`??zb_ReceiveDataIndication::?relay` SYMBOL "?relay", zb_ReceiveDataIndication
zb_SendDataConfirm  SYMBOL "zb_SendDataConfirm"
`??zb_SendDataConfirm::?relay` SYMBOL "?relay", zb_SendDataConfirm
zb_StartConfirm     SYMBOL "zb_StartConfirm"
`??zb_StartConfirm::?relay` SYMBOL "?relay", zb_StartConfirm
SAPI_Init           SYMBOL "SAPI_Init"
`??SAPI_Init::?relay` SYMBOL "?relay", SAPI_Init
SAPI_ProcessEvent   SYMBOL "SAPI_ProcessEvent"
`??SAPI_ProcessEvent::?relay` SYMBOL "?relay", SAPI_ProcessEvent
SAPI_ProcessZDOMsgs SYMBOL "SAPI_ProcessZDOMsgs"
`??SAPI_ProcessZDOMsgs::?relay` SYMBOL "?relay", SAPI_ProcessZDOMsgs
USER_event_loop     SYMBOL "USER_event_loop"
`??USER_event_loop::?relay` SYMBOL "?relay", USER_event_loop
zb_AllowBind        SYMBOL "zb_AllowBind"
`??zb_AllowBind::?relay` SYMBOL "?relay", zb_AllowBind
zb_BindDevice       SYMBOL "zb_BindDevice"
`??zb_BindDevice::?relay` SYMBOL "?relay", zb_BindDevice
zb_FindDeviceRequest SYMBOL "zb_FindDeviceRequest"
`??zb_FindDeviceRequest::?relay` SYMBOL "?relay", zb_FindDeviceRequest
zb_GetDeviceInfo    SYMBOL "zb_GetDeviceInfo"
`??zb_GetDeviceInfo::?relay` SYMBOL "?relay", zb_GetDeviceInfo
zb_PermitJoiningRequest SYMBOL "zb_PermitJoiningRequest"
`??zb_PermitJoiningRequest::?relay` SYMBOL "?relay", zb_PermitJoiningRequest
zb_ReadConfiguration SYMBOL "zb_ReadConfiguration"
`??zb_ReadConfiguration::?relay` SYMBOL "?relay", zb_ReadConfiguration
zb_SendDataRequest  SYMBOL "zb_SendDataRequest"
`??zb_SendDataRequest::?relay` SYMBOL "?relay", zb_SendDataRequest
zb_StartRequest     SYMBOL "zb_StartRequest"
`??zb_StartRequest::?relay` SYMBOL "?relay", zb_StartRequest
zb_SystemReset      SYMBOL "zb_SystemReset"
`??zb_SystemReset::?relay` SYMBOL "?relay", zb_SystemReset
zb_WriteConfiguration SYMBOL "zb_WriteConfiguration"
`??zb_WriteConfiguration::?relay` SYMBOL "?relay", zb_WriteConfiguration

        EXTERN `??AF_DataRequest::?relay`
        FUNCTION `??AF_DataRequest::?relay`,00H
        EXTERN `??APSME_BindRequest::?relay`
        FUNCTION `??APSME_BindRequest::?relay`,00H
        EXTERN `??APS_event_loop::?relay`
        FUNCTION `??APS_event_loop::?relay`,00H
        EXTERN `??HalKeyRead::?relay`
        FUNCTION `??HalKeyRead::?relay`,00H
        EXTERN `??HalLedBlink::?relay`
        FUNCTION `??HalLedBlink::?relay`,00H
        EXTERN `??HalLedSet::?relay`
        FUNCTION `??HalLedSet::?relay`,00H
        EXTERN `??Hal_ProcessEvent::?relay`
        FUNCTION `??Hal_ProcessEvent::?relay`,00H
        EXTERN `??NLME_IsAddressBroadcast::?relay`
        FUNCTION `??NLME_IsAddressBroadcast::?relay`,00H
        EXTERN `??RegisterForKeys::?relay`
        FUNCTION `??RegisterForKeys::?relay`,00H
        EXTERN `??ZDApp_event_loop::?relay`
        FUNCTION `??ZDApp_event_loop::?relay`,00H
        EXTERN `??ZDOInitDevice::?relay`
        FUNCTION `??ZDOInitDevice::?relay`,00H
        EXTERN `??ZDO_AnyClusterMatches::?relay`
        FUNCTION `??ZDO_AnyClusterMatches::?relay`,00H
        EXTERN `??ZDO_ParseAddrRsp::?relay`
        FUNCTION `??ZDO_ParseAddrRsp::?relay`,00H
        EXTERN `??ZDO_ParseEPListRsp::?relay`
        FUNCTION `??ZDO_ParseEPListRsp::?relay`,00H
        EXTERN `??ZDO_RegisterForZDOMsg::?relay`
        FUNCTION `??ZDO_RegisterForZDOMsg::?relay`,00H
        EXTERN `??ZDP_IEEEAddrReq::?relay`
        FUNCTION `??ZDP_IEEEAddrReq::?relay`,00H
        EXTERN `??ZDP_MatchDescReq::?relay`
        FUNCTION `??ZDP_MatchDescReq::?relay`,00H
        EXTERN `??ZDP_NwkAddrReq::?relay`
        FUNCTION `??ZDP_NwkAddrReq::?relay`,00H
        EXTERN `??afRegister::?relay`
        FUNCTION `??afRegister::?relay`,00H
        EXTERN `??afSetMatch::?relay`
        FUNCTION `??afSetMatch::?relay`,00H
        EXTERN `??bindFind::?relay`
        FUNCTION `??bindFind::?relay`,00H
        EXTERN `??bindRemoveEntry::?relay`
        FUNCTION `??bindRemoveEntry::?relay`,00H
        EXTERN `??macEventLoop::?relay`
        FUNCTION `??macEventLoop::?relay`,00H
        EXTERN `??nwk_event_loop::?relay`
        FUNCTION `??nwk_event_loop::?relay`,00H
        EXTERN `??osal_memcpy::?relay`
        FUNCTION `??osal_memcpy::?relay`,00H
        EXTERN `??osal_msg_allocate::?relay`
        FUNCTION `??osal_msg_allocate::?relay`,00H
        EXTERN `??osal_msg_deallocate::?relay`
        FUNCTION `??osal_msg_deallocate::?relay`,00H
        EXTERN `??osal_msg_receive::?relay`
        FUNCTION `??osal_msg_receive::?relay`,00H
        EXTERN `??osal_msg_send::?relay`
        FUNCTION `??osal_msg_send::?relay`,00H
        EXTERN `??osal_nv_item_len::?relay`
        FUNCTION `??osal_nv_item_len::?relay`,00H
        EXTERN `??osal_nv_read::?relay`
        FUNCTION `??osal_nv_read::?relay`,00H
        EXTERN `??osal_nv_write::?relay`
        FUNCTION `??osal_nv_write::?relay`,00H
        EXTERN `??osal_set_event::?relay`
        FUNCTION `??osal_set_event::?relay`,00H
        EXTERN `??osal_start_timerEx::?relay`
        FUNCTION `??osal_start_timerEx::?relay`,00H
        EXTERN `??osal_stop_timerEx::?relay`
        FUNCTION `??osal_stop_timerEx::?relay`,00H
        EXTERN `??sAddrExtCpy::?relay`
        FUNCTION `??sAddrExtCpy::?relay`,00H
        EXTERN `??zb_AllowBindConfirm::?relay`
        FUNCTION `??zb_AllowBindConfirm::?relay`,00H
        EXTERN `??zb_BindConfirm::?relay`
        FUNCTION `??zb_BindConfirm::?relay`,00H
        EXTERN `??zb_FindDeviceConfirm::?relay`
        FUNCTION `??zb_FindDeviceConfirm::?relay`,00H
        EXTERN `??zb_HandleKeys::?relay`
        FUNCTION `??zb_HandleKeys::?relay`,00H
        EXTERN `??zb_HandleOsalEvent::?relay`
        FUNCTION `??zb_HandleOsalEvent::?relay`,00H
        EXTERN `??zb_ReceiveDataIndication::?relay`
        FUNCTION `??zb_ReceiveDataIndication::?relay`,00H
        EXTERN `??zb_SendDataConfirm::?relay`
        FUNCTION `??zb_SendDataConfirm::?relay`,00H
        EXTERN `??zb_StartConfirm::?relay`
        FUNCTION `??zb_StartConfirm::?relay`,00H
        EXTERN AF_DataRequest
        FUNCTION AF_DataRequest,0202H
        ARGFRAME ISTACK, 0, STACK
        ARGFRAME PSTACK, 0, STACK
        ARGFRAME XSTACK, 33, STACK
        ARGFRAME IOVERLAY, 0, STATIC
        ARGFRAME DOVERLAY, 0, STATIC
        EXTERN AIB_MaxBindingTime
        EXTERN APSME_BindRequest
        FUNCTION APSME_BindRequest,0202H
        ARGFRAME ISTACK, 0, STACK
        ARGFRAME PSTACK, 0, STACK
        ARGFRAME XSTACK, 28, STACK
        ARGFRAME IOVERLAY, 0, STATIC
        ARGFRAME DOVERLAY, 0, STATIC
        EXTERN HalKeyRead
        FUNCTION HalKeyRead,0202H
        ARGFRAME ISTACK, 0, STACK
        ARGFRAME PSTACK, 0, STACK
        ARGFRAME XSTACK, 10, STACK
        ARGFRAME IOVERLAY, 0, STATIC
        ARGFRAME DOVERLAY, 0, STATIC
        EXTERN HalLedBlink
        FUNCTION HalLedBlink,0202H
        ARGFRAME ISTACK, 0, STACK
        ARGFRAME PSTACK, 0, STACK
        ARGFRAME XSTACK, 15, STACK
        ARGFRAME IOVERLAY, 0, STATIC
        ARGFRAME DOVERLAY, 0, STATIC
        EXTERN HalLedSet
        FUNCTION HalLedSet,0202H
        ARGFRAME ISTACK, 0, STACK
        ARGFRAME PSTACK, 0, STACK
        ARGFRAME XSTACK, 15, STACK
        ARGFRAME IOVERLAY, 0, STATIC
        ARGFRAME DOVERLAY, 0, STATIC
        EXTERN NLME_IsAddressBroadcast
        FUNCTION NLME_IsAddressBroadcast,0202H
        ARGFRAME ISTACK, 0, STACK
        ARGFRAME PSTACK, 0, STACK
        ARGFRAME XSTACK, 24, STACK
        ARGFRAME IOVERLAY, 0, STATIC
        ARGFRAME DOVERLAY, 0, STATIC
        EXTERN Onboard_soft_reset
        FUNCTION Onboard_soft_reset,0202H
        ARGFRAME ISTACK, 0, STACK
        ARGFRAME PSTACK, 0, STACK
        ARGFRAME XSTACK, 0, STACK
        ARGFRAME IOVERLAY, 0, STATIC
        ARGFRAME DOVERLAY, 0, STATIC
        EXTERN RegisterForKeys
        FUNCTION RegisterForKeys,0202H
        ARGFRAME ISTACK, 0, STACK
        ARGFRAME PSTACK, 0, STACK
        ARGFRAME XSTACK, 10, STACK
        ARGFRAME IOVERLAY, 0, STATIC
        ARGFRAME DOVERLAY, 0, STATIC
        EXTERN ZDAppTaskID
        EXTERN ZDOInitDevice
        FUNCTION ZDOInitDevice,0202H
        ARGFRAME ISTACK, 2, STACK
        ARGFRAME PSTACK, 0, STACK
        ARGFRAME XSTACK, 1, STACK
        ARGFRAME IOVERLAY, 0, STATIC
        ARGFRAME DOVERLAY, 0, STATIC
        EXTERN ZDO_AnyClusterMatches
        FUNCTION ZDO_AnyClusterMatches,0202H
        ARGFRAME ISTACK, 0, STACK
        ARGFRAME PSTACK, 0, STACK
        ARGFRAME XSTACK, 29, STACK
        ARGFRAME IOVERLAY, 0, STATIC
        ARGFRAME DOVERLAY, 0, STATIC
        EXTERN ZDO_ParseAddrRsp
        FUNCTION ZDO_ParseAddrRsp,0202H
        ARGFRAME ISTACK, 0, STACK
        ARGFRAME PSTACK, 0, STACK
        ARGFRAME XSTACK, 19, STACK
        ARGFRAME IOVERLAY, 0, STATIC
        ARGFRAME DOVERLAY, 0, STATIC
        EXTERN ZDO_ParseEPListRsp
        FUNCTION ZDO_ParseEPListRsp,0202H
        ARGFRAME ISTACK, 0, STACK
        ARGFRAME PSTACK, 0, STACK
        ARGFRAME XSTACK, 19, STACK
        ARGFRAME IOVERLAY, 0, STATIC
        ARGFRAME DOVERLAY, 0, STATIC
        EXTERN ZDO_RegisterForZDOMsg
        FUNCTION ZDO_RegisterForZDOMsg,0202H
        ARGFRAME ISTACK, 0, STACK
        ARGFRAME PSTACK, 0, STACK
        ARGFRAME XSTACK, 10, STACK
        ARGFRAME IOVERLAY, 0, STATIC
        ARGFRAME DOVERLAY, 0, STATIC
        EXTERN ZDP_IEEEAddrReq
        FUNCTION ZDP_IEEEAddrReq,0202H
        ARGFRAME ISTACK, 0, STACK
        ARGFRAME PSTACK, 0, STACK
        ARGFRAME XSTACK, 19, STACK
        ARGFRAME IOVERLAY, 0, STATIC
        ARGFRAME DOVERLAY, 0, STATIC
        EXTERN ZDP_MatchDescReq
        FUNCTION ZDP_MatchDescReq,0202H
        ARGFRAME ISTACK, 0, STACK
        ARGFRAME PSTACK, 0, STACK
        ARGFRAME XSTACK, 35, STACK
        ARGFRAME IOVERLAY, 0, STATIC
        ARGFRAME DOVERLAY, 0, STATIC
        EXTERN ZDP_NwkAddrReq
        FUNCTION ZDP_NwkAddrReq,0202H
        ARGFRAME ISTACK, 0, STACK
        ARGFRAME PSTACK, 0, STACK
        ARGFRAME XSTACK, 27, STACK
        ARGFRAME IOVERLAY, 0, STATIC
        ARGFRAME DOVERLAY, 0, STATIC
        EXTERN _NIB
        EXTERN aExtendedAddress
        EXTERN afRegister
        FUNCTION afRegister,0202H
        ARGFRAME ISTACK, 0, STACK
        ARGFRAME PSTACK, 0, STACK
        ARGFRAME XSTACK, 10, STACK
        ARGFRAME IOVERLAY, 0, STATIC
        ARGFRAME DOVERLAY, 0, STATIC
        EXTERN afSetMatch
        FUNCTION afSetMatch,0202H
        ARGFRAME ISTACK, 0, STACK
        ARGFRAME PSTACK, 0, STACK
        ARGFRAME XSTACK, 15, STACK
        ARGFRAME IOVERLAY, 0, STATIC
        ARGFRAME DOVERLAY, 0, STATIC
        EXTERN bindFind
        FUNCTION bindFind,0202H
        ARGFRAME ISTACK, 0, STACK
        ARGFRAME PSTACK, 0, STACK
        ARGFRAME XSTACK, 27, STACK
        ARGFRAME IOVERLAY, 0, STATIC
        ARGFRAME DOVERLAY, 0, STATIC
        EXTERN bindRemoveEntry
        FUNCTION bindRemoveEntry,0202H
        ARGFRAME ISTACK, 0, STACK
        ARGFRAME PSTACK, 0, STACK
        ARGFRAME XSTACK, 27, STACK
        ARGFRAME IOVERLAY, 0, STATIC
        ARGFRAME DOVERLAY, 0, STATIC
        EXTERN devState
        EXTERN osal_memcpy
        FUNCTION osal_memcpy,0202H
        ARGFRAME ISTACK, 0, STACK
        ARGFRAME PSTACK, 0, STACK
        ARGFRAME XSTACK, 14, STACK
        ARGFRAME IOVERLAY, 0, STATIC
        ARGFRAME DOVERLAY, 0, STATIC
        EXTERN osal_msg_allocate
        FUNCTION osal_msg_allocate,0202H
        ARGFRAME ISTACK, 0, STACK
        ARGFRAME PSTACK, 0, STACK
        ARGFRAME XSTACK, 12, STACK
        ARGFRAME IOVERLAY, 0, STATIC
        ARGFRAME DOVERLAY, 0, STATIC
        EXTERN osal_msg_deallocate
        FUNCTION osal_msg_deallocate,0202H
        ARGFRAME ISTACK, 0, STACK
        ARGFRAME PSTACK, 0, STACK
        ARGFRAME XSTACK, 15, STACK
        ARGFRAME IOVERLAY, 0, STATIC
        ARGFRAME DOVERLAY, 0, STATIC
        EXTERN osal_msg_receive
        FUNCTION osal_msg_receive,0202H
        ARGFRAME ISTACK, 0, STACK
        ARGFRAME PSTACK, 0, STACK
        ARGFRAME XSTACK, 15, STACK
        ARGFRAME IOVERLAY, 0, STATIC
        ARGFRAME DOVERLAY, 0, STATIC
        EXTERN osal_msg_send
        FUNCTION osal_msg_send,0202H
        ARGFRAME ISTACK, 0, STACK
        ARGFRAME PSTACK, 0, STACK
        ARGFRAME XSTACK, 12, STACK
        ARGFRAME IOVERLAY, 0, STATIC
        ARGFRAME DOVERLAY, 0, STATIC
        EXTERN osal_nv_item_len
        FUNCTION osal_nv_item_len,0202H
        ARGFRAME ISTACK, 0, STACK
        ARGFRAME PSTACK, 0, STACK
        ARGFRAME XSTACK, 12, STACK
        ARGFRAME IOVERLAY, 0, STATIC
        ARGFRAME DOVERLAY, 0, STATIC
        EXTERN osal_nv_read
        FUNCTION osal_nv_read,0202H
        ARGFRAME ISTACK, 0, STACK
        ARGFRAME PSTACK, 0, STACK
        ARGFRAME XSTACK, 16, STACK
        ARGFRAME IOVERLAY, 0, STATIC
        ARGFRAME DOVERLAY, 0, STATIC
        EXTERN osal_nv_write
        FUNCTION osal_nv_write,0202H
        ARGFRAME ISTACK, 0, STACK
        ARGFRAME PSTACK, 0, STACK
        ARGFRAME XSTACK, 14, STACK
        ARGFRAME IOVERLAY, 0, STATIC
        ARGFRAME DOVERLAY, 0, STATIC
        EXTERN osal_set_event
        FUNCTION osal_set_event,0202H
        ARGFRAME ISTACK, 0, STACK
        ARGFRAME PSTACK, 0, STACK
        ARGFRAME XSTACK, 10, STACK
        ARGFRAME IOVERLAY, 0, STATIC
        ARGFRAME DOVERLAY, 0, STATIC
        EXTERN osal_start_timerEx
        FUNCTION osal_start_timerEx,0202H
        ARGFRAME ISTACK, 0, STACK
        ARGFRAME PSTACK, 0, STACK
        ARGFRAME XSTACK, 31, STACK
        ARGFRAME IOVERLAY, 0, STATIC
        ARGFRAME DOVERLAY, 0, STATIC
        EXTERN osal_stop_timerEx
        FUNCTION osal_stop_timerEx,0202H
        ARGFRAME ISTACK, 0, STACK
        ARGFRAME PSTACK, 0, STACK
        ARGFRAME XSTACK, 19, STACK
        ARGFRAME IOVERLAY, 0, STATIC
        ARGFRAME DOVERLAY, 0, STATIC
        EXTERN sAddrExtCpy
        FUNCTION sAddrExtCpy,0202H
        ARGFRAME ISTACK, 0, STACK
        ARGFRAME PSTACK, 0, STACK
        ARGFRAME XSTACK, 27, STACK
        ARGFRAME IOVERLAY, 0, STATIC
        ARGFRAME DOVERLAY, 0, STATIC
        EXTERN zb_AllowBindConfirm
        FUNCTION zb_AllowBindConfirm,0202H
        ARGFRAME ISTACK, 2, STACK
        ARGFRAME PSTACK, 0, STACK
        ARGFRAME XSTACK, 0, STACK
        ARGFRAME IOVERLAY, 0, STATIC
        ARGFRAME DOVERLAY, 0, STATIC
        EXTERN zb_BindConfirm
        FUNCTION zb_BindConfirm,0202H
        ARGFRAME ISTACK, 0, STACK
        ARGFRAME PSTACK, 0, STACK
        ARGFRAME XSTACK, 19, STACK
        ARGFRAME IOVERLAY, 0, STATIC
        ARGFRAME DOVERLAY, 0, STATIC
        EXTERN zb_FindDeviceConfirm
        FUNCTION zb_FindDeviceConfirm,0202H
        ARGFRAME ISTACK, 0, STACK
        ARGFRAME PSTACK, 0, STACK
        ARGFRAME XSTACK, 9, STACK
        ARGFRAME IOVERLAY, 0, STATIC
        ARGFRAME DOVERLAY, 0, STATIC
        EXTERN zb_HandleKeys
        FUNCTION zb_HandleKeys,0202H
        ARGFRAME ISTACK, 0, STACK
        ARGFRAME PSTACK, 0, STACK
        ARGFRAME XSTACK, 15, STACK
        ARGFRAME IOVERLAY, 0, STATIC
        ARGFRAME DOVERLAY, 0, STATIC
        EXTERN zb_HandleOsalEvent
        FUNCTION zb_HandleOsalEvent,0202H
        ARGFRAME ISTACK, 0, STACK
        ARGFRAME PSTACK, 0, STACK
        ARGFRAME XSTACK, 15, STACK
        ARGFRAME IOVERLAY, 0, STATIC
        ARGFRAME DOVERLAY, 0, STATIC
        EXTERN zb_ReceiveDataIndication
        FUNCTION zb_ReceiveDataIndication,0202H
        ARGFRAME ISTACK, 2, STACK
        ARGFRAME PSTACK, 0, STACK
        ARGFRAME XSTACK, 4, STACK
        ARGFRAME IOVERLAY, 0, STATIC
        ARGFRAME DOVERLAY, 0, STATIC
        EXTERN zb_SendDataConfirm
        FUNCTION zb_SendDataConfirm,0202H
        ARGFRAME ISTACK, 0, STACK
        ARGFRAME PSTACK, 0, STACK
        ARGFRAME XSTACK, 9, STACK
        ARGFRAME IOVERLAY, 0, STATIC
        ARGFRAME DOVERLAY, 0, STATIC
        EXTERN zb_SimpleDesc
        EXTERN zb_StartConfirm
        FUNCTION zb_StartConfirm,0202H
        ARGFRAME ISTACK, 0, STACK
        ARGFRAME PSTACK, 0, STACK
        ARGFRAME XSTACK, 9, STACK
        ARGFRAME IOVERLAY, 0, STATIC
        ARGFRAME DOVERLAY, 0, STATIC
        EXTERN zgStartDelay

// C:\Users\koen\ZigBee-Code-WTWS\Components\stack\sapi\sapi.c
//    1 /**************************************************************************************************
//    2   Filename:       sapi.c
//    3   Revised:        $Date: 2010-05-03 17:46:57 -0700 (Mon, 03 May 2010) $
//    4   Revision:       $Revision: 22364 $
//    5 
//    6   Description:    Z-Stack Simple Application Interface.
//    7 
//    8 
//    9   Copyright 2007-2010 Texas Instruments Incorporated. All rights reserved.
//   10 
//   11   IMPORTANT: Your use of this Software is limited to those specific rights
//   12   granted under the terms of a software license agreement between the user
//   13   who downloaded the software, his/her employer (which must be your employer)
//   14   and Texas Instruments Incorporated (the "License").  You may not use this
//   15   Software unless you agree to abide by the terms of the License. The License
//   16   limits your use, and you acknowledge, that the Software may not be modified,
//   17   copied or distributed unless embedded on a Texas Instruments microcontroller
//   18   or used solely and exclusively in conjunction with a Texas Instruments radio
//   19   frequency transceiver, which is integrated into your product.  Other than for
//   20   the foregoing purpose, you may not use, reproduce, copy, prepare derivative
//   21   works of, modify, distribute, perform, display or sell this Software and/or
//   22   its documentation for any purpose.
//   23 
//   24   YOU FURTHER ACKNOWLEDGE AND AGREE THAT THE SOFTWARE AND DOCUMENTATION ARE
//   25   PROVIDED “AS IS” WITHOUT WARRANTY OF ANY KIND, EITHER EXPRESS OR IMPLIED,
//   26   INCLUDING WITHOUT LIMITATION, ANY WARRANTY OF MERCHANTABILITY, TITLE,
//   27   NON-INFRINGEMENT AND FITNESS FOR A PARTICULAR PURPOSE. IN NO EVENT SHALL
//   28   TEXAS INSTRUMENTS OR ITS LICENSORS BE LIABLE OR OBLIGATED UNDER CONTRACT,
//   29   NEGLIGENCE, STRICT LIABILITY, CONTRIBUTION, BREACH OF WARRANTY, OR OTHER
//   30   LEGAL EQUITABLE THEORY ANY DIRECT OR INDIRECT DAMAGES OR EXPENSES
//   31   INCLUDING BUT NOT LIMITED TO ANY INCIDENTAL, SPECIAL, INDIRECT, PUNITIVE
//   32   OR CONSEQUENTIAL DAMAGES, LOST PROFITS OR LOST DATA, COST OF PROCUREMENT
//   33   OF SUBSTITUTE GOODS, TECHNOLOGY, SERVICES, OR ANY CLAIMS BY THIRD PARTIES
//   34   (INCLUDING BUT NOT LIMITED TO ANY DEFENSE THEREOF), OR OTHER SIMILAR COSTS.
//   35 
//   36   Should you have any questions regarding your right to use this Software,
//   37   contact Texas Instruments Incorporated at www.TI.com.
//   38 **************************************************************************************************/
//   39 
//   40 /******************************************************************************
//   41  * INCLUDES
//   42  */
//   43 
//   44 #include "ZComDef.h"
//   45 #include "hal_drivers.h"
//   46 #include "OSAL.h"
//   47 #include "OSAL_Tasks.h"
//   48 //#include "OSAL_Custom.h"
//   49 
//   50 #if defined ( MT_TASK )
//   51   #include "MT.h"
//   52   #include "MT_TASK.h"
//   53 #endif
//   54 
//   55 #include "nwk.h"
//   56 #include "APS.h"
//   57 #include "ZDApp.h"
//   58 
//   59 #include "osal_nv.h"
//   60 #include "NLMEDE.h"
//   61 #include "AF.h"
//   62 #include "OnBoard.h"

        ASEGN SFR_AN:DATA:NOROOT,080H
// union <unnamed> volatile __sfr _A_P0
_A_P0:
        DATA8
        DS 1
//   63 #include "nwk_util.h"
//   64 #include "ZDProfile.h"
//   65 #include "ZDObject.h"
//   66 #include "hal_led.h"
//   67 #include "hal_key.h"
//   68 #include "sapi.h"
//   69 #include "MT_SAPI.h"
//   70 
//   71 extern uint8 zgStartDelay;
//   72 extern uint8 zgSapiEndpoint;
//   73 
//   74 /*********************************************************************
//   75  * CONSTANTS
//   76  */
//   77 
//   78 #if !defined OSAL_SAPI
//   79 #define OSAL_SAPI  TRUE
//   80 #endif
//   81 
//   82 #if !defined SAPI_CB_FUNC
//   83 #define SAPI_CB_FUNC  TRUE
//   84 #endif
//   85 
//   86 // Message ID's for application user messages must be in 0xE0-0xEF range
//   87 #define ZB_USER_MSG       0xE0
//   88 #define SAPICB_DATA_CNF   0xE0
//   89 #define SAPICB_BIND_CNF   0xE1
//   90 #define SAPICB_START_CNF  0xE2
//   91 
//   92 /*********************************************************************
//   93  * TYPEDEFS
//   94  */
//   95 
//   96 /*********************************************************************
//   97  * GLOBAL VARIABLES
//   98  */
//   99 
//  100 #if OSAL_SAPI
//  101 // The order in this table must be identical to the task initialization calls below in osalInitTask.

        RSEG XDATA_ROM_C:CONST:REORDER:NOROOT(0)
        DATA8
//  102 const pTaskEventHandlerFn tasksArr[] = {
tasksArr:
        DATA16
        DW `??macEventLoop::?relay`
        DW `??nwk_event_loop::?relay`
        DW `??Hal_ProcessEvent::?relay`
        DW `??APS_event_loop::?relay`
        DW `??ZDApp_event_loop::?relay`
        DW `??SAPI_ProcessEvent::?relay`
        DW `??USER_event_loop::?relay`
//  103   macEventLoop,
//  104   nwk_event_loop,
//  105   Hal_ProcessEvent,
//  106 #if defined( MT_TASK )
//  107   MT_ProcessEvent,
//  108 #endif
//  109   APS_event_loop,
//  110   ZDApp_event_loop,
//  111   SAPI_ProcessEvent,
//  112   USER_event_loop
//  113 };
//  114 

        RSEG XDATA_ROM_C:CONST:REORDER:NOROOT(0)
        DATA8
//  115 const uint8 tasksCnt = sizeof( tasksArr ) / sizeof( tasksArr[0] );
tasksCnt:
        DB 7

        RSEG XDATA_Z:XDATA:NOROOT(0)
        DATA16
//  116 uint16 * tasksEvents;
tasksEvents:
        DS 2
        REQUIRE __INIT_XDATA_Z
//  117 #endif
//  118 

        RSEG XDATA_Z:XDATA:NOROOT(0)
        DATA8
//  119 endPointDesc_t sapi_epDesc;
sapi_epDesc:
        DS 6
        REQUIRE __INIT_XDATA_Z

        RSEG XDATA_Z:XDATA:NOROOT(0)
        DATA8
//  120 uint8 sapi_TaskID;
sapi_TaskID:
        DS 1
        REQUIRE __INIT_XDATA_Z

        RSEG XDATA_Z:XDATA:NOROOT(0)
        DATA16
//  121 static uint16 sapi_bindInProgress;
sapi_bindInProgress:
        DS 2
        REQUIRE __INIT_XDATA_Z
//  122 
//  123 /*********************************************************************
//  124  * LOCAL FUNCTIONS
//  125  */
//  126 
//  127 void SAPI_ProcessZDOMsgs( zdoIncomingMsg_t *inMsg );
//  128 static void SAPI_SendCback( uint8 event, uint8 status, uint16 data );
//  129 
//  130 static void SAPI_StartConfirm( uint8 status );
//  131 static void SAPI_SendDataConfirm( uint8 handle, uint8 status );
//  132 static void SAPI_BindConfirm( uint16 commandId, uint8 status );
//  133 static void SAPI_FindDeviceConfirm( uint8 searchType,
//  134                                     uint8 *searchKey, uint8 *result );
//  135 static void SAPI_ReceiveDataIndication( uint16 source,
//  136                               uint16 command, uint16 len, uint8 *pData  );
//  137 static void SAPI_AllowBindConfirm( uint16 source );
//  138 
//  139 /******************************************************************************
//  140  * @fn          zb_SystemReset
//  141  *
//  142  * @brief       The zb_SystemReset function reboots the ZigBee device.  The
//  143  *              zb_SystemReset function can be called after a call to
//  144  *              zb_WriteConfiguration to restart Z-Stack with the updated
//  145  *              configuration.
//  146  *
//  147  * @param       none
//  148  *
//  149  * @return      none
//  150  */

        RSEG BANKED_CODE:CODE:NOROOT(0)
//  151 void zb_SystemReset ( void )
zb_SystemReset:
          CFI Block cfiBlock0 Using cfiCommon0
          CFI Function zb_SystemReset
        CODE
//  152 {
        FUNCALL zb_SystemReset, Onboard_soft_reset
        LOCFRAME ISTACK, 0, STACK
        LOCFRAME PSTACK, 0, STACK
        LOCFRAME XSTACK, 0, STACK
        LOCFRAME IOVERLAY, 0, STATIC
        LOCFRAME DOVERLAY, 0, STATIC
        ARGFRAME ISTACK, 0, STACK
        ARGFRAME PSTACK, 0, STACK
        ARGFRAME XSTACK, 0, STACK
        ARGFRAME IOVERLAY, 0, STATIC
        ARGFRAME DOVERLAY, 0, STATIC
        ; Saved register size: 0
        ; Auto size: 0
//  153   SystemResetSoft();  // Especially useful for CC2531 to not break comm with USB Host.
        ; Setup parameters for call to function Onboard_soft_reset
        LCALL   Onboard_soft_reset & 0xFFFF
//  154 }
        LJMP    ?BRET
          CFI EndBlock cfiBlock0
//  155 
//  156 /******************************************************************************
//  157  * @fn          zb_StartRequest
//  158  *
//  159  * @brief       The zb_StartRequest function starts the ZigBee stack.  When the
//  160  *              ZigBee stack starts, the device reads configuration parameters
//  161  *              from Nonvolatile memory and the device joins its network.  The
//  162  *              ZigBee stack calls the zb_StartConrifm callback function when
//  163  *              the startup process completes.
//  164  *
//  165  * @param       none
//  166  *
//  167  * @return      none
//  168  */

        RSEG BANKED_CODE:CODE:NOROOT(0)
//  169 void zb_StartRequest()
zb_StartRequest:
          CFI Block cfiBlock1 Using cfiCommon0
          CFI Function zb_StartRequest
        CODE
//  170 {
        FUNCALL zb_StartRequest, zb_ReadConfiguration
        LOCFRAME ISTACK, 2, STACK
        LOCFRAME PSTACK, 0, STACK
        LOCFRAME XSTACK, 1, STACK
        LOCFRAME IOVERLAY, 0, STATIC
        LOCFRAME DOVERLAY, 0, STATIC
        ARGFRAME ISTACK, 2, STACK
        ARGFRAME PSTACK, 0, STACK
        ARGFRAME XSTACK, 1, STACK
        ARGFRAME IOVERLAY, 0, STATIC
        ARGFRAME DOVERLAY, 0, STATIC
        FUNCALL zb_StartRequest, SAPI_SendCback
        LOCFRAME ISTACK, 2, STACK
        LOCFRAME PSTACK, 0, STACK
        LOCFRAME XSTACK, 1, STACK
        LOCFRAME IOVERLAY, 0, STATIC
        LOCFRAME DOVERLAY, 0, STATIC
        ARGFRAME ISTACK, 2, STACK
        ARGFRAME PSTACK, 0, STACK
        ARGFRAME XSTACK, 1, STACK
        ARGFRAME IOVERLAY, 0, STATIC
        ARGFRAME DOVERLAY, 0, STATIC
        FUNCALL zb_StartRequest, ZDOInitDevice
        LOCFRAME ISTACK, 2, STACK
        LOCFRAME PSTACK, 0, STACK
        LOCFRAME XSTACK, 1, STACK
        LOCFRAME IOVERLAY, 0, STATIC
        LOCFRAME DOVERLAY, 0, STATIC
        ARGFRAME ISTACK, 2, STACK
        ARGFRAME PSTACK, 0, STACK
        ARGFRAME XSTACK, 1, STACK
        ARGFRAME IOVERLAY, 0, STATIC
        ARGFRAME DOVERLAY, 0, STATIC
        PUSH    DPL
          CFI DPL0 Frame(CFA_SP, 4)
          CFI CFA_SP SP+-4
        PUSH    DPH
          CFI DPH0 Frame(CFA_SP, 5)
          CFI CFA_SP SP+-5
        ; Saved register size: 2
        ; Auto size: 1
        MOV     A,#-0x1
        LCALL   ?ALLOC_XSTACK8
          CFI CFA_XSP16 add(XSP16, 1)
//  171   uint8 logicalType;
//  172 
//  173   zb_ReadConfiguration( ZCD_NV_LOGICAL_TYPE, sizeof(uint8), &logicalType );
        ; Setup parameters for call to function zb_ReadConfiguration
        MOV     R4,?XSP + 0
        MOV     R5,?XSP + 1
        MOV     R2,#0x1
        MOV     R1,#-0x79
        LCALL   `??zb_ReadConfiguration::?relay`; Banked call to: zb_ReadConfiguration
        MOV     A,R1
//  174 
//  175   // Check for bad combinations of compile flag definitions and device type setting.
//  176   if ((logicalType > ZG_DEVICETYPE_ENDDEVICE)      ||
//  177 #if !ZG_BUILD_ENDDEVICE_TYPE   // Only RTR or Coord possible.
//  178       (logicalType == ZG_DEVICETYPE_ENDDEVICE)     ||
//  179 #endif
//  180 #if !ZG_BUILD_RTR_TYPE         // Only End Device possible.
//  181       (logicalType == ZG_DEVICETYPE_ROUTER)        ||
//  182       (logicalType == ZG_DEVICETYPE_COORDINATOR)   ||
//  183 #elif ZG_BUILD_RTRONLY_TYPE    // Only RTR possible.
//  184       (logicalType == ZG_DEVICETYPE_COORDINATOR)   ||
//  185 #elif !ZG_BUILD_JOINING_TYPE   // Only Coord possible.
//  186       (logicalType == ZG_DEVICETYPE_ROUTER)        ||
//  187 #endif
//  188       (0))
        MOV     DPL,?XSP + 0
        MOV     DPH,?XSP + 1
        MOVX    A,@DPTR
        CLR     C
        SUBB    A,#0x3
        JC      ??zb_StartRequest_0
//  189   {
//  190     logicalType = ZB_INVALID_PARAMETER;
        MOV     DPL,?XSP + 0
        MOV     DPH,?XSP + 1
        MOV     A,#0x2
        MOVX    @DPTR,A
//  191     SAPI_SendCback(SAPICB_START_CNF, logicalType, 0);
        ; Setup parameters for call to function SAPI_SendCback
        MOV     R4,#0x0
        MOV     R5,#0x0
        MOV     DPL,?XSP + 0
        MOV     DPH,?XSP + 1
        MOVX    A,@DPTR
        MOV     R2,A
        MOV     R1,#-0x1e
        LCALL   `??SAPI_SendCback::?relay`; Banked call to: SAPI_SendCback
        SJMP    ??zb_StartRequest_1
//  192   }
//  193   else
//  194   {
//  195     logicalType = ZB_SUCCESS;
??zb_StartRequest_0:
        MOV     DPL,?XSP + 0
        MOV     DPH,?XSP + 1
        MOV     A,#0x0
        MOVX    @DPTR,A
//  196     ZDOInitDevice(zgStartDelay);
        ; Setup parameters for call to function ZDOInitDevice
        MOV     DPTR,#zgStartDelay
        MOVX    A,@DPTR
        MOV     R2,A
        MOV     R3,#0x0
        LCALL   `??ZDOInitDevice::?relay`; Banked call to: ZDOInitDevice
        MOV     A,R1
//  197   }
//  198 
//  199   return;
??zb_StartRequest_1:
        MOV     A,#0x1
        LCALL   ?DEALLOC_XSTACK8
          CFI CFA_XSP16 XSP16+0
        POP     DPH
          CFI DPH0 SameValue
          CFI CFA_SP SP+-4
        POP     DPL
          CFI DPL0 SameValue
          CFI CFA_SP SP+-3
        LJMP    ?BRET
//  200 }
          CFI EndBlock cfiBlock1
//  201 
//  202 /******************************************************************************
//  203  * @fn          zb_BindDevice
//  204  *
//  205  * @brief       The zb_BindDevice function establishes or removes a ‘binding’
//  206  *              between two devices.  Once bound, an application can send
//  207  *              messages to a device by referencing the commandId for the
//  208  *              binding.
//  209  *
//  210  * @param       create - TRUE to create a binding, FALSE to remove a binding
//  211  *              commandId - The identifier of the binding
//  212  *              pDestination - The 64-bit IEEE address of the device to bind to
//  213  *
//  214  * @return      The status of the bind operation is returned in the
//  215  *              zb_BindConfirm callback.
//  216  */

        RSEG BANKED_CODE:CODE:NOROOT(0)
//  217 void zb_BindDevice ( uint8 create, uint16 commandId, uint8 *pDestination )
zb_BindDevice:
          CFI Block cfiBlock2 Using cfiCommon0
          CFI Function zb_BindDevice
        CODE
//  218 {
        FUNCALL zb_BindDevice, sAddrExtCpy
        LOCFRAME ISTACK, 0, STACK
        LOCFRAME PSTACK, 0, STACK
        LOCFRAME XSTACK, 27, STACK
        LOCFRAME IOVERLAY, 0, STATIC
        LOCFRAME DOVERLAY, 0, STATIC
        ARGFRAME ISTACK, 0, STACK
        ARGFRAME PSTACK, 0, STACK
        ARGFRAME XSTACK, 27, STACK
        ARGFRAME IOVERLAY, 0, STATIC
        ARGFRAME DOVERLAY, 0, STATIC
        FUNCALL zb_BindDevice, APSME_BindRequest
        LOCFRAME ISTACK, 0, STACK
        LOCFRAME PSTACK, 0, STACK
        LOCFRAME XSTACK, 28, STACK
        LOCFRAME IOVERLAY, 0, STATIC
        LOCFRAME DOVERLAY, 0, STATIC
        ARGFRAME ISTACK, 0, STACK
        ARGFRAME PSTACK, 0, STACK
        ARGFRAME XSTACK, 28, STACK
        ARGFRAME IOVERLAY, 0, STATIC
        ARGFRAME DOVERLAY, 0, STATIC
        FUNCALL zb_BindDevice, ZDP_NwkAddrReq
        LOCFRAME ISTACK, 0, STACK
        LOCFRAME PSTACK, 0, STACK
        LOCFRAME XSTACK, 27, STACK
        LOCFRAME IOVERLAY, 0, STATIC
        LOCFRAME DOVERLAY, 0, STATIC
        ARGFRAME ISTACK, 0, STACK
        ARGFRAME PSTACK, 0, STACK
        ARGFRAME XSTACK, 27, STACK
        ARGFRAME IOVERLAY, 0, STATIC
        ARGFRAME DOVERLAY, 0, STATIC
        FUNCALL zb_BindDevice, osal_start_timerEx
        LOCFRAME ISTACK, 0, STACK
        LOCFRAME PSTACK, 0, STACK
        LOCFRAME XSTACK, 31, STACK
        LOCFRAME IOVERLAY, 0, STATIC
        LOCFRAME DOVERLAY, 0, STATIC
        ARGFRAME ISTACK, 0, STACK
        ARGFRAME PSTACK, 0, STACK
        ARGFRAME XSTACK, 31, STACK
        ARGFRAME IOVERLAY, 0, STATIC
        ARGFRAME DOVERLAY, 0, STATIC
        FUNCALL zb_BindDevice, SAPI_SendCback
        LOCFRAME ISTACK, 0, STACK
        LOCFRAME PSTACK, 0, STACK
        LOCFRAME XSTACK, 27, STACK
        LOCFRAME IOVERLAY, 0, STATIC
        LOCFRAME DOVERLAY, 0, STATIC
        ARGFRAME ISTACK, 0, STACK
        ARGFRAME PSTACK, 0, STACK
        ARGFRAME XSTACK, 27, STACK
        ARGFRAME IOVERLAY, 0, STATIC
        ARGFRAME DOVERLAY, 0, STATIC
        FUNCALL zb_BindDevice, ZDO_AnyClusterMatches
        LOCFRAME ISTACK, 0, STACK
        LOCFRAME PSTACK, 0, STACK
        LOCFRAME XSTACK, 29, STACK
        LOCFRAME IOVERLAY, 0, STATIC
        LOCFRAME DOVERLAY, 0, STATIC
        ARGFRAME ISTACK, 0, STACK
        ARGFRAME PSTACK, 0, STACK
        ARGFRAME XSTACK, 29, STACK
        ARGFRAME IOVERLAY, 0, STATIC
        ARGFRAME DOVERLAY, 0, STATIC
        FUNCALL zb_BindDevice, ZDP_MatchDescReq
        LOCFRAME ISTACK, 0, STACK
        LOCFRAME PSTACK, 0, STACK
        LOCFRAME XSTACK, 35, STACK
        LOCFRAME IOVERLAY, 0, STATIC
        LOCFRAME DOVERLAY, 0, STATIC
        ARGFRAME ISTACK, 0, STACK
        ARGFRAME PSTACK, 0, STACK
        ARGFRAME XSTACK, 35, STACK
        ARGFRAME IOVERLAY, 0, STATIC
        ARGFRAME DOVERLAY, 0, STATIC
        FUNCALL zb_BindDevice, ZDO_AnyClusterMatches
        LOCFRAME ISTACK, 0, STACK
        LOCFRAME PSTACK, 0, STACK
        LOCFRAME XSTACK, 29, STACK
        LOCFRAME IOVERLAY, 0, STATIC
        LOCFRAME DOVERLAY, 0, STATIC
        ARGFRAME ISTACK, 0, STACK
        ARGFRAME PSTACK, 0, STACK
        ARGFRAME XSTACK, 29, STACK
        ARGFRAME IOVERLAY, 0, STATIC
        ARGFRAME DOVERLAY, 0, STATIC
        FUNCALL zb_BindDevice, ZDP_MatchDescReq
        LOCFRAME ISTACK, 0, STACK
        LOCFRAME PSTACK, 0, STACK
        LOCFRAME XSTACK, 35, STACK
        LOCFRAME IOVERLAY, 0, STATIC
        LOCFRAME DOVERLAY, 0, STATIC
        ARGFRAME ISTACK, 0, STACK
        ARGFRAME PSTACK, 0, STACK
        ARGFRAME XSTACK, 35, STACK
        ARGFRAME IOVERLAY, 0, STATIC
        ARGFRAME DOVERLAY, 0, STATIC
        FUNCALL zb_BindDevice, osal_start_timerEx
        LOCFRAME ISTACK, 0, STACK
        LOCFRAME PSTACK, 0, STACK
        LOCFRAME XSTACK, 31, STACK
        LOCFRAME IOVERLAY, 0, STATIC
        LOCFRAME DOVERLAY, 0, STATIC
        ARGFRAME ISTACK, 0, STACK
        ARGFRAME PSTACK, 0, STACK
        ARGFRAME XSTACK, 31, STACK
        ARGFRAME IOVERLAY, 0, STATIC
        ARGFRAME DOVERLAY, 0, STATIC
        FUNCALL zb_BindDevice, bindRemoveEntry
        LOCFRAME ISTACK, 0, STACK
        LOCFRAME PSTACK, 0, STACK
        LOCFRAME XSTACK, 27, STACK
        LOCFRAME IOVERLAY, 0, STATIC
        LOCFRAME DOVERLAY, 0, STATIC
        ARGFRAME ISTACK, 0, STACK
        ARGFRAME PSTACK, 0, STACK
        ARGFRAME XSTACK, 27, STACK
        ARGFRAME IOVERLAY, 0, STATIC
        ARGFRAME DOVERLAY, 0, STATIC
        FUNCALL zb_BindDevice, bindFind
        LOCFRAME ISTACK, 0, STACK
        LOCFRAME PSTACK, 0, STACK
        LOCFRAME XSTACK, 27, STACK
        LOCFRAME IOVERLAY, 0, STATIC
        LOCFRAME DOVERLAY, 0, STATIC
        ARGFRAME ISTACK, 0, STACK
        ARGFRAME PSTACK, 0, STACK
        ARGFRAME XSTACK, 27, STACK
        ARGFRAME IOVERLAY, 0, STATIC
        ARGFRAME DOVERLAY, 0, STATIC
        FUNCALL zb_BindDevice, osal_start_timerEx
        LOCFRAME ISTACK, 0, STACK
        LOCFRAME PSTACK, 0, STACK
        LOCFRAME XSTACK, 31, STACK
        LOCFRAME IOVERLAY, 0, STATIC
        LOCFRAME DOVERLAY, 0, STATIC
        ARGFRAME ISTACK, 0, STACK
        ARGFRAME PSTACK, 0, STACK
        ARGFRAME XSTACK, 31, STACK
        ARGFRAME IOVERLAY, 0, STATIC
        ARGFRAME DOVERLAY, 0, STATIC
        REQUIRE ?V0
        REQUIRE ?V1
        REQUIRE ?V2
        REQUIRE ?V3
        REQUIRE ?V4
        REQUIRE ?V5
        REQUIRE ?V6
        REQUIRE ?V7
        MOV     A,#-0x10
        LCALL   ?BANKED_ENTER_XDATA
          CFI DPH0 load(1, XDATA, add(CFA_XSP16, literal(-1)))
          CFI DPL0 load(1, XDATA, add(CFA_XSP16, literal(-2)))
          CFI ?BRET_EXT load(1, XDATA, add(CFA_XSP16, literal(-3)))
          CFI ?RET_HIGH load(1, XDATA, add(CFA_XSP16, literal(-4)))
          CFI ?RET_LOW load(1, XDATA, add(CFA_XSP16, literal(-5)))
          CFI R7 load(1, XDATA, add(CFA_XSP16, literal(-6)))
          CFI V7 load(1, XDATA, add(CFA_XSP16, literal(-7)))
          CFI V6 load(1, XDATA, add(CFA_XSP16, literal(-8)))
          CFI V5 load(1, XDATA, add(CFA_XSP16, literal(-9)))
          CFI V4 load(1, XDATA, add(CFA_XSP16, literal(-10)))
          CFI V3 load(1, XDATA, add(CFA_XSP16, literal(-11)))
          CFI V2 load(1, XDATA, add(CFA_XSP16, literal(-12)))
          CFI V1 load(1, XDATA, add(CFA_XSP16, literal(-13)))
          CFI V0 load(1, XDATA, add(CFA_XSP16, literal(-14)))
          CFI VB load(1, XDATA, add(CFA_XSP16, literal(-15)))
          CFI R6 load(1, XDATA, add(CFA_XSP16, literal(-16)))
          CFI CFA_SP SP+0
          CFI CFA_XSP16 add(XSP16, 16)
        ; Saved register size: 16
        ; Auto size: 11
        MOV     A,#-0xb
        LCALL   ?ALLOC_XSTACK8
          CFI CFA_XSP16 add(XSP16, 27)
        MOV     DPL,?XSP + 0
        MOV     DPH,?XSP + 1
        MOV     A,R2
        MOVX    @DPTR,A
        INC     DPTR
        MOV     A,R3
        MOVX    @DPTR,A
        MOV     ?V1,R1
        MOV     A,R4
        MOV     R6,A
        MOV     A,R5
        MOV     R7,A
//  219   zAddrType_t destination;
//  220   uint8 ret = ZB_ALREADY_IN_PROGRESS;
        MOV     ?V0,#0x20
//  221 
//  222   if ( create )
        MOV     A,?V1
        JNZ     $+5
        LJMP    ??zb_BindDevice_0 & 0xFFFF
//  223   {
//  224     if (sapi_bindInProgress == 0xffff)
        MOV     DPTR,#sapi_bindInProgress
        MOVX    A,@DPTR
        XRL     A,#0xff
        JNZ     ??zb_BindDevice_1
        INC     DPTR
        MOVX    A,@DPTR
        XRL     A,#0xff
??zb_BindDevice_1:
        JNZ     ??zb_BindDevice_2
//  225     {
//  226       if ( pDestination )
        MOV     A,R6
        ORL     A,R7
        JZ      ??zb_BindDevice_3
//  227       {
//  228         destination.addrMode = Addr64Bit;
        MOV     A,#0xa
        LCALL   ?XSTACK_DISP0_8
        MOV     A,#0x3
        MOVX    @DPTR,A
//  229         osal_cpyExtAddr( destination.addr.extAddr, pDestination );
        ; Setup parameters for call to function sAddrExtCpy
        MOV     A,R6
        MOV     R4,A
        MOV     A,R7
        MOV     R5,A
        MOV     A,#0x2
        LCALL   ?XSTACK_DISP101_8
        LCALL   `??sAddrExtCpy::?relay`; Banked call to: sAddrExtCpy
//  230 
//  231         ret = APSME_BindRequest( sapi_epDesc.endPoint, commandId,
//  232                                  &destination, sapi_epDesc.endPoint );
        ; Setup parameters for call to function APSME_BindRequest
        MOV     DPTR,#sapi_epDesc
        MOVX    A,@DPTR
        MOV     ?V0,A
        MOV     R0,#?V0
        LCALL   ?PUSH_XSTACK_I_ONE
          CFI CFA_XSP16 add(XSP16, 28)
        MOV     A,#0x3
        LCALL   ?XSTACK_DISP102_8
        MOV     A,#0x1
        LCALL   ?XSTACK_DISP0_8
        MOVX    A,@DPTR
        MOV     R2,A
        INC     DPTR
        MOVX    A,@DPTR
        MOV     R3,A
        MOV     DPTR,#sapi_epDesc
        MOVX    A,@DPTR
        MOV     R1,A
        LCALL   `??APSME_BindRequest::?relay`; Banked call to: APSME_BindRequest
        MOV     A,#0x1
        LCALL   ?DEALLOC_XSTACK8
          CFI CFA_XSP16 add(XSP16, 27)
        MOV     A,R1
        MOV     ?V0,A
//  233 
//  234         if ( ret == ZSuccess )
        MOV     A,?V0
        JNZ     ??zb_BindDevice_2
//  235         {
//  236           // Find nwk addr
//  237           ZDP_NwkAddrReq(pDestination, ZDP_ADDR_REQTYPE_SINGLE, 0, 0 );
        ; Setup parameters for call to function ZDP_NwkAddrReq
        MOV     R5,#0x0
        MOV     R4,#0x0
        MOV     R1,#0x0
        MOV     A,R6
        MOV     R2,A
        MOV     A,R7
        MOV     R3,A
        LCALL   `??ZDP_NwkAddrReq::?relay`; Banked call to: ZDP_NwkAddrReq
        MOV     A,R1
//  238           osal_start_timerEx( ZDAppTaskID, ZDO_NWK_UPDATE_NV, 250 );
        ; Setup parameters for call to function osal_start_timerEx
        MOV     DPTR,#__Constant_fa
        LCALL   ?PUSH_XSTACK8_X_FOUR
          CFI CFA_XSP16 add(XSP16, 31)
        MOV     R2,#0x0
        MOV     R3,#0x1
        MOV     DPTR,#ZDAppTaskID
        MOVX    A,@DPTR
        MOV     R1,A
        LCALL   `??osal_start_timerEx::?relay`; Banked call to: osal_start_timerEx
        MOV     A,#0x4
        LCALL   ?DEALLOC_XSTACK8
          CFI CFA_XSP16 add(XSP16, 27)
        MOV     A,R1
//  239         }
//  240       }
//  241       else
//  242       {
//  243         ret = ZB_INVALID_PARAMETER;
//  244         destination.addrMode = Addr16Bit;
//  245         destination.addr.shortAddr = NWK_BROADCAST_SHORTADDR;
//  246         if ( ZDO_AnyClusterMatches( 1, &commandId, sapi_epDesc.simpleDesc->AppNumOutClusters,
//  247                                     sapi_epDesc.simpleDesc->pAppOutClusterList ) )
//  248         {
//  249           // Try to match with a device in the allow bind mode
//  250           ret = ZDP_MatchDescReq( &destination, NWK_BROADCAST_SHORTADDR,
//  251               sapi_epDesc.simpleDesc->AppProfId, 1, &commandId, 0, (cId_t *)NULL, 0 );
//  252         }
//  253         else if ( ZDO_AnyClusterMatches( 1, &commandId, sapi_epDesc.simpleDesc->AppNumInClusters,
//  254                                          sapi_epDesc.simpleDesc->pAppInClusterList ) )
//  255         {
//  256           ret = ZDP_MatchDescReq( &destination, NWK_BROADCAST_SHORTADDR,
//  257               sapi_epDesc.simpleDesc->AppProfId, 0, (cId_t *)NULL, 1, &commandId, 0 );
//  258         }
//  259 
//  260         if ( ret == ZB_SUCCESS )
//  261         {
//  262           // Set a timer to make sure bind completes
//  263 #if ( ZG_BUILD_RTR_TYPE )
//  264           osal_start_timerEx(sapi_TaskID, ZB_BIND_TIMER, AIB_MaxBindingTime);
//  265 #else
//  266           // AIB_MaxBindingTime is not defined for an End Device
//  267           osal_start_timerEx(sapi_TaskID, ZB_BIND_TIMER, zgApsDefaultMaxBindingTime);
//  268 #endif
//  269           sapi_bindInProgress = commandId;
//  270           return; // dont send cback event
//  271         }
//  272       }
//  273     }
//  274     SAPI_SendCback( SAPICB_BIND_CNF, ret, commandId );
??zb_BindDevice_2:
        ; Setup parameters for call to function SAPI_SendCback
        MOV     DPL,?XSP + 0
        MOV     DPH,?XSP + 1
        MOVX    A,@DPTR
        MOV     R4,A
        INC     DPTR
        MOVX    A,@DPTR
        MOV     R5,A
        MOV     R2,?V0
        MOV     R1,#-0x1f
        LCALL   `??SAPI_SendCback::?relay`; Banked call to: SAPI_SendCback
        LJMP    ??zb_BindDevice_4 & 0xFFFF
??zb_BindDevice_3:
        MOV     ?V0,#0x2
        MOV     A,#0xa
        LCALL   ?XSTACK_DISP0_8
        MOV     A,#0x2
        MOVX    @DPTR,A
        MOV     A,#0x2
        LCALL   ?XSTACK_DISP0_8
        MOV     A,#-0x1
        MOVX    @DPTR,A
        INC     DPTR
        MOV     A,#-0x1
        MOVX    @DPTR,A
        ; Setup parameters for call to function ZDO_AnyClusterMatches
        MOV     DPTR,#sapi_epDesc + 3
        MOVX    A,@DPTR
        MOV     R0,A
        INC     DPTR
        MOVX    A,@DPTR
        XCH     A,R0
        ADD     A,#0xa
        MOV     DPL,A
        XCH     A,R0
        ADDC    A,#0x0
        MOV     DPH,A
        LCALL   ?PUSH_XSTACK8_X_TWO
          CFI CFA_XSP16 add(XSP16, 29)
        MOV     DPTR,#sapi_epDesc + 3
        MOVX    A,@DPTR
        MOV     R0,A
        INC     DPTR
        MOVX    A,@DPTR
        XCH     A,R0
        ADD     A,#0x9
        MOV     DPL,A
        XCH     A,R0
        ADDC    A,#0x0
        MOV     DPH,A
        MOVX    A,@DPTR
        MOV     R4,A
        MOV     A,#0x2
        LCALL   ?XSTACK_DISP101_8
        MOV     R1,#0x1
        LCALL   `??ZDO_AnyClusterMatches::?relay`; Banked call to: ZDO_AnyClusterMatches
        MOV     A,#0x2
        LCALL   ?DEALLOC_XSTACK8
          CFI CFA_XSP16 add(XSP16, 27)
        MOV     A,R1
        JZ      ??zb_BindDevice_5
        ; Setup parameters for call to function ZDP_MatchDescReq
        MOV     ?V0,#0x0
        MOV     R0,#?V0
        LCALL   ?PUSH_XSTACK_I_ONE
          CFI CFA_XSP16 add(XSP16, 28)
        CLR     A
        MOV     ?V2,A
        MOV     ?V3,A
        MOV     R0,#?V2
        LCALL   ?PUSH_XSTACK_I_TWO
          CFI CFA_XSP16 add(XSP16, 30)
        MOV     ?V0,#0x0
        MOV     R0,#?V0
        LCALL   ?PUSH_XSTACK_I_ONE
          CFI CFA_XSP16 add(XSP16, 31)
        MOV     A,#0x4
        LCALL   ?XSTACK_DISP100_8
        MOV     ?V2,R0
        MOV     ?V3,R1
        MOV     R0,#?V2
        LCALL   ?PUSH_XSTACK_I_TWO
          CFI CFA_XSP16 add(XSP16, 33)
        MOV     DPTR,#sapi_epDesc + 3
        MOVX    A,@DPTR
        MOV     R0,A
        INC     DPTR
        MOVX    A,@DPTR
        MOV     DPH,A
        MOV     DPL,R0
        INC     DPTR
        LCALL   ?PUSH_XSTACK8_X_TWO
          CFI CFA_XSP16 add(XSP16, 35)
        MOV     R1,#0x1
        MOV     R4,#-0x1
        MOV     R5,#-0x1
        MOV     A,#0xa
        LCALL   ?XSTACK_DISP101_8
        LCALL   `??ZDP_MatchDescReq::?relay`; Banked call to: ZDP_MatchDescReq
        MOV     A,#0x8
        LCALL   ?DEALLOC_XSTACK8
          CFI CFA_XSP16 add(XSP16, 27)
        MOV     A,R1
        MOV     ?V0,A
        LJMP    ??zb_BindDevice_6 & 0xFFFF
??zb_BindDevice_5:
        ; Setup parameters for call to function ZDO_AnyClusterMatches
        MOV     DPTR,#sapi_epDesc + 3
        MOVX    A,@DPTR
        MOV     R0,A
        INC     DPTR
        MOVX    A,@DPTR
        XCH     A,R0
        ADD     A,#0x7
        MOV     DPL,A
        XCH     A,R0
        ADDC    A,#0x0
        MOV     DPH,A
        LCALL   ?PUSH_XSTACK8_X_TWO
          CFI CFA_XSP16 add(XSP16, 29)
        MOV     DPTR,#sapi_epDesc + 3
        MOVX    A,@DPTR
        MOV     R0,A
        INC     DPTR
        MOVX    A,@DPTR
        XCH     A,R0
        ADD     A,#0x6
        MOV     DPL,A
        XCH     A,R0
        ADDC    A,#0x0
        MOV     DPH,A
        MOVX    A,@DPTR
        MOV     R4,A
        MOV     A,#0x2
        LCALL   ?XSTACK_DISP101_8
        MOV     R1,#0x1
        LCALL   `??ZDO_AnyClusterMatches::?relay`; Banked call to: ZDO_AnyClusterMatches
        MOV     A,#0x2
        LCALL   ?DEALLOC_XSTACK8
          CFI CFA_XSP16 add(XSP16, 27)
        MOV     A,R1
        JZ      ??zb_BindDevice_6
        ; Setup parameters for call to function ZDP_MatchDescReq
        MOV     ?V0,#0x0
        MOV     R0,#?V0
        LCALL   ?PUSH_XSTACK_I_ONE
          CFI CFA_XSP16 add(XSP16, 28)
        MOV     A,#0x1
        LCALL   ?XSTACK_DISP100_8
        MOV     ?V2,R0
        MOV     ?V3,R1
        MOV     R0,#?V2
        LCALL   ?PUSH_XSTACK_I_TWO
          CFI CFA_XSP16 add(XSP16, 30)
        MOV     ?V0,#0x1
        MOV     R0,#?V0
        LCALL   ?PUSH_XSTACK_I_ONE
          CFI CFA_XSP16 add(XSP16, 31)
        CLR     A
        MOV     ?V2,A
        MOV     ?V3,A
        MOV     R0,#?V2
        LCALL   ?PUSH_XSTACK_I_TWO
          CFI CFA_XSP16 add(XSP16, 33)
        MOV     DPTR,#sapi_epDesc + 3
        MOVX    A,@DPTR
        MOV     R0,A
        INC     DPTR
        MOVX    A,@DPTR
        MOV     DPH,A
        MOV     DPL,R0
        INC     DPTR
        LCALL   ?PUSH_XSTACK8_X_TWO
          CFI CFA_XSP16 add(XSP16, 35)
        MOV     R1,#0x0
        MOV     R4,#-0x1
        MOV     R5,#-0x1
        MOV     A,#0xa
        LCALL   ?XSTACK_DISP101_8
        LCALL   `??ZDP_MatchDescReq::?relay`; Banked call to: ZDP_MatchDescReq
        MOV     A,#0x8
        LCALL   ?DEALLOC_XSTACK8
          CFI CFA_XSP16 add(XSP16, 27)
        MOV     A,R1
        MOV     ?V0,A
??zb_BindDevice_6:
        MOV     A,?V0
        JZ      $+5
        LJMP    ??zb_BindDevice_2 & 0xFFFF
        ; Setup parameters for call to function osal_start_timerEx
        MOV     DPTR,#AIB_MaxBindingTime
        MOVX    A,@DPTR
        MOV     ?V4,A
        INC     DPTR
        MOVX    A,@DPTR
        MOV     ?V5,A
        CLR     A
        MOV     ?V6,A
        MOV     ?V7,A
        MOV     R0,#?V4
        LCALL   ?PUSH_XSTACK_I_FOUR
          CFI CFA_XSP16 add(XSP16, 31)
        MOV     R2,#0x0
        MOV     R3,#0x20
        MOV     DPTR,#sapi_TaskID
        MOVX    A,@DPTR
        MOV     R1,A
        LCALL   `??osal_start_timerEx::?relay`; Banked call to: osal_start_timerEx
        MOV     A,#0x4
        LCALL   ?DEALLOC_XSTACK8
          CFI CFA_XSP16 add(XSP16, 27)
        MOV     A,R1
        MOV     DPL,?XSP + 0
        MOV     DPH,?XSP + 1
        MOVX    A,@DPTR
        MOV     R0,A
        INC     DPTR
        MOVX    A,@DPTR
        MOV     R1,A
        MOV     DPTR,#sapi_bindInProgress
        MOV     A,R0
        MOVX    @DPTR,A
        INC     DPTR
        MOV     A,R1
        MOVX    @DPTR,A
        SJMP    ??zb_BindDevice_4
//  275   }
//  276   else
//  277   {
//  278     // Remove local bindings for the commandId
//  279     BindingEntry_t *pBind;
//  280 
//  281     // Loop through bindings an remove any that match the cluster
//  282     while ( pBind = bindFind( sapi_epDesc.simpleDesc->EndPoint, commandId, 0 ) )
//  283     {
//  284       bindRemoveEntry(pBind);
??zb_BindDevice_7:
        ; Setup parameters for call to function bindRemoveEntry
        LCALL   `??bindRemoveEntry::?relay`; Banked call to: bindRemoveEntry
        MOV     A,R1
//  285     }
??zb_BindDevice_0:
        ; Setup parameters for call to function bindFind
        MOV     R4,#0x0
        MOV     DPL,?XSP + 0
        MOV     DPH,?XSP + 1
        MOVX    A,@DPTR
        MOV     R2,A
        INC     DPTR
        MOVX    A,@DPTR
        MOV     R3,A
        MOV     DPTR,#sapi_epDesc + 3
        MOVX    A,@DPTR
        MOV     R0,A
        INC     DPTR
        MOVX    A,@DPTR
        MOV     DPH,A
        MOV     DPL,R0
        MOVX    A,@DPTR
        MOV     R1,A
        LCALL   `??bindFind::?relay` ; Banked call to: bindFind
        MOV     ?V2,R2
        MOV     ?V3,R3
        MOV     R0,?V2
        MOV     R1,?V3
        MOV     A,R0
        MOV     R2,A
        MOV     A,R1
        MOV     R3,A
        MOV     A,R0
        ORL     A,R1
        JNZ     ??zb_BindDevice_7
//  286     osal_start_timerEx( ZDAppTaskID, ZDO_NWK_UPDATE_NV, 250 );
        ; Setup parameters for call to function osal_start_timerEx
        MOV     DPTR,#__Constant_fa
        LCALL   ?PUSH_XSTACK8_X_FOUR
          CFI CFA_XSP16 add(XSP16, 31)
        MOV     R2,#0x0
        MOV     R3,#0x1
        MOV     DPTR,#ZDAppTaskID
        MOVX    A,@DPTR
        MOV     R1,A
        LCALL   `??osal_start_timerEx::?relay`; Banked call to: osal_start_timerEx
        MOV     A,#0x4
        LCALL   ?DEALLOC_XSTACK8
          CFI CFA_XSP16 add(XSP16, 27)
        MOV     A,R1
//  287   }
//  288   return;
??zb_BindDevice_4:
        MOV     A,#0xb
        LCALL   ?DEALLOC_XSTACK8
          CFI CFA_XSP16 add(XSP16, 16)
        MOV     R7,#0x8
        LJMP    ?BANKED_LEAVE_XDATA
          CFI R6 SameValue
          CFI VB SameValue
          CFI V0 SameValue
          CFI V1 SameValue
          CFI V2 SameValue
          CFI V3 SameValue
          CFI V4 SameValue
          CFI V5 SameValue
          CFI V6 SameValue
          CFI V7 SameValue
          CFI R7 SameValue
          CFI ?RET_LOW Frame(CFA_SP, 1)
          CFI ?RET_HIGH Frame(CFA_SP, 2)
          CFI ?BRET_EXT Frame(CFA_SP, 3)
          CFI DPL0 SameValue
          CFI DPH0 SameValue
          CFI CFA_SP SP+-3
          CFI CFA_XSP16 XSP16+0
//  289 }
          CFI EndBlock cfiBlock2
//  290 /******************************************************************************
//  291  * @fn          zb_PermitJoiningRequest
//  292  *
//  293  * @brief       The zb_PermitJoiningRequest function is used to control the
//  294  *              joining permissions and thus allow or disallow new devices from
//  295  *              joining the network.
//  296  *
//  297  * @param       destination - The destination parameter indicates the address
//  298  *                            of the device for which the joining permissions
//  299  *                            should be set. This is usually the local device
//  300  *                            address or the special broadcast address that denotes
//  301  *                            all routers and coordinator ( 0xFFFC ). This way
//  302  *                            the joining permissions of a single device or the
//  303  *                            whole network can be controlled.
//  304  *              timeout -  Indicates the amount of time in seconds for which
//  305  *                         the joining permissions should be turned on.
//  306  *                         If timeout is set to 0x00, the device will turn off the
//  307  *                         joining permissions indefinitely. If it is set to 0xFF,
//  308  *                         the joining permissions will be turned on indefinitely.
//  309  *
//  310  *
//  311  * @return      ZB_SUCCESS or a failure code
//  312  *
//  313  */
//  314 

        RSEG BANKED_CODE:CODE:NOROOT(0)
//  315 uint8 zb_PermitJoiningRequest ( uint16 destination, uint8 timeout )
zb_PermitJoiningRequest:
          CFI Block cfiBlock3 Using cfiCommon0
          CFI Function zb_PermitJoiningRequest
        CODE
//  316 {
        ; Saved register size: 0
        ; Auto size: 0
//  317 #if defined( ZDO_MGMT_PERMIT_JOIN_REQUEST )
//  318   zAddrType_t dstAddr;
//  319 
//  320   dstAddr.addrMode = Addr16Bit;
//  321   dstAddr.addr.shortAddr = destination;
//  322 
//  323   return( (uint8) ZDP_MgmtPermitJoinReq( &dstAddr, timeout, 0, 0 ) );
//  324 #else
//  325   (void)destination;
//  326   (void)timeout;
//  327   return ZUnsupportedMode;
        MOV     R1,#0x12
        LJMP    ?BRET
//  328 #endif
//  329 }
          CFI EndBlock cfiBlock3
//  330 /******************************************************************************
//  331  * @fn          zb_AllowBind
//  332  *
//  333  * @brief       The zb_AllowBind function puts the device into the
//  334  *              Allow Binding Mode for a given period of time.  A peer device
//  335  *              can establish a binding to a device in the Allow Binding Mode
//  336  *              by calling zb_BindDevice with a destination address of NULL
//  337  *
//  338  * @param       timeout - The number of seconds to remain in the allow binding
//  339  *                        mode.  Valid values range from 1 through 65.
//  340  *                        If 0, the Allow Bind mode will be set false without TO
//  341  *                        If greater than 64, the Allow Bind mode will be true
//  342  *
//  343  * @return      ZB_SUCCESS if the device entered the allow bind mode, else
//  344  *              an error code.
//  345  */

        RSEG BANKED_CODE:CODE:NOROOT(0)
//  346 void zb_AllowBind ( uint8 timeout )
zb_AllowBind:
          CFI Block cfiBlock4 Using cfiCommon0
          CFI Function zb_AllowBind
        CODE
//  347 {
        FUNCALL zb_AllowBind, osal_stop_timerEx
        LOCFRAME ISTACK, 0, STACK
        LOCFRAME PSTACK, 0, STACK
        LOCFRAME XSTACK, 12, STACK
        LOCFRAME IOVERLAY, 0, STATIC
        LOCFRAME DOVERLAY, 0, STATIC
        ARGFRAME ISTACK, 0, STACK
        ARGFRAME PSTACK, 0, STACK
        ARGFRAME XSTACK, 12, STACK
        ARGFRAME IOVERLAY, 0, STATIC
        ARGFRAME DOVERLAY, 0, STATIC
        FUNCALL zb_AllowBind, afSetMatch
        LOCFRAME ISTACK, 0, STACK
        LOCFRAME PSTACK, 0, STACK
        LOCFRAME XSTACK, 12, STACK
        LOCFRAME IOVERLAY, 0, STATIC
        LOCFRAME DOVERLAY, 0, STATIC
        ARGFRAME ISTACK, 0, STACK
        ARGFRAME PSTACK, 0, STACK
        ARGFRAME XSTACK, 12, STACK
        ARGFRAME IOVERLAY, 0, STATIC
        ARGFRAME DOVERLAY, 0, STATIC
        FUNCALL zb_AllowBind, afSetMatch
        LOCFRAME ISTACK, 0, STACK
        LOCFRAME PSTACK, 0, STACK
        LOCFRAME XSTACK, 12, STACK
        LOCFRAME IOVERLAY, 0, STATIC
        LOCFRAME DOVERLAY, 0, STATIC
        ARGFRAME ISTACK, 0, STACK
        ARGFRAME PSTACK, 0, STACK
        ARGFRAME XSTACK, 12, STACK
        ARGFRAME IOVERLAY, 0, STATIC
        ARGFRAME DOVERLAY, 0, STATIC
        FUNCALL zb_AllowBind, osal_start_timerEx
        LOCFRAME ISTACK, 0, STACK
        LOCFRAME PSTACK, 0, STACK
        LOCFRAME XSTACK, 16, STACK
        LOCFRAME IOVERLAY, 0, STATIC
        LOCFRAME DOVERLAY, 0, STATIC
        ARGFRAME ISTACK, 0, STACK
        ARGFRAME PSTACK, 0, STACK
        ARGFRAME XSTACK, 16, STACK
        ARGFRAME IOVERLAY, 0, STATIC
        ARGFRAME DOVERLAY, 0, STATIC
        REQUIRE ?V0
        REQUIRE ?V1
        REQUIRE ?V2
        REQUIRE ?V3
        MOV     A,#-0xc
        LCALL   ?BANKED_ENTER_XDATA
          CFI DPH0 load(1, XDATA, add(CFA_XSP16, literal(-1)))
          CFI DPL0 load(1, XDATA, add(CFA_XSP16, literal(-2)))
          CFI ?BRET_EXT load(1, XDATA, add(CFA_XSP16, literal(-3)))
          CFI ?RET_HIGH load(1, XDATA, add(CFA_XSP16, literal(-4)))
          CFI ?RET_LOW load(1, XDATA, add(CFA_XSP16, literal(-5)))
          CFI R7 load(1, XDATA, add(CFA_XSP16, literal(-6)))
          CFI V3 load(1, XDATA, add(CFA_XSP16, literal(-7)))
          CFI V2 load(1, XDATA, add(CFA_XSP16, literal(-8)))
          CFI V1 load(1, XDATA, add(CFA_XSP16, literal(-9)))
          CFI V0 load(1, XDATA, add(CFA_XSP16, literal(-10)))
          CFI VB load(1, XDATA, add(CFA_XSP16, literal(-11)))
          CFI R6 load(1, XDATA, add(CFA_XSP16, literal(-12)))
          CFI CFA_SP SP+0
          CFI CFA_XSP16 add(XSP16, 12)
        ; Saved register size: 12
        ; Auto size: 0
        MOV     A,R1
        MOV     R6,A
//  348 
//  349   osal_stop_timerEx(sapi_TaskID, ZB_ALLOW_BIND_TIMER);
        ; Setup parameters for call to function osal_stop_timerEx
        MOV     R2,#0x0
        MOV     R3,#0x40
        MOV     DPTR,#sapi_TaskID
        MOVX    A,@DPTR
        MOV     R1,A
        LCALL   `??osal_stop_timerEx::?relay`; Banked call to: osal_stop_timerEx
        MOV     A,R1
//  350 
//  351   if ( timeout == 0 )
        MOV     A,R6
        JNZ     ??zb_AllowBind_0
//  352   {
//  353     afSetMatch(sapi_epDesc.simpleDesc->EndPoint, FALSE);
        ; Setup parameters for call to function afSetMatch
        MOV     R2,#0x0
        MOV     DPTR,#sapi_epDesc + 3
        MOVX    A,@DPTR
        MOV     R0,A
        INC     DPTR
        MOVX    A,@DPTR
        MOV     DPH,A
        MOV     DPL,R0
        MOVX    A,@DPTR
        MOV     R1,A
        LCALL   `??afSetMatch::?relay`; Banked call to: afSetMatch
        MOV     A,R1
        SJMP    ??zb_AllowBind_1
//  354   }
//  355   else
//  356   {
//  357     afSetMatch(sapi_epDesc.simpleDesc->EndPoint, TRUE);
??zb_AllowBind_0:
        ; Setup parameters for call to function afSetMatch
        MOV     R2,#0x1
        MOV     DPTR,#sapi_epDesc + 3
        MOVX    A,@DPTR
        MOV     R0,A
        INC     DPTR
        MOVX    A,@DPTR
        MOV     DPH,A
        MOV     DPL,R0
        MOVX    A,@DPTR
        MOV     R1,A
        LCALL   `??afSetMatch::?relay`; Banked call to: afSetMatch
        MOV     A,R1
//  358     if ( timeout != 0xFF )
        MOV     A,#-0x1
        XRL     A,R6
        JZ      ??zb_AllowBind_1
//  359     {
//  360       if ( timeout > 64 )
        MOV     A,R6
        CLR     C
        SUBB    A,#0x41
        JC      ??zb_AllowBind_2
//  361       {
//  362         timeout = 64;
        MOV     R6,#0x40
//  363       }
//  364       osal_start_timerEx(sapi_TaskID, ZB_ALLOW_BIND_TIMER, timeout*1000);
??zb_AllowBind_2:
        ; Setup parameters for call to function osal_start_timerEx
        MOV     A,R6
        MOV     R0,A
        MOV     R1,#0x0
        MOV     A,R0
        MOV     B,#-0x18
        MUL     AB
        XCH     A,R0
        MOV     R2,B
        MOV     B,#0x3
        MUL     AB
        ADD     A,R2
        MOV     R2,A
        MOV     B,#-0x18
        MOV     A,R1
        MUL     AB
        ADD     A,R2
        MOV     R1,A
        MOV     ?V0,R0
        MOV     A,R1
        MOV     ?V1,A
        RLC     A
        SUBB    A,0xE0 /* A   */
        MOV     ?V2,A
        MOV     ?V3,A
        MOV     R0,#?V0
        LCALL   ?PUSH_XSTACK_I_FOUR
          CFI CFA_XSP16 add(XSP16, 16)
        MOV     R2,#0x0
        MOV     R3,#0x40
        MOV     DPTR,#sapi_TaskID
        MOVX    A,@DPTR
        MOV     R1,A
        LCALL   `??osal_start_timerEx::?relay`; Banked call to: osal_start_timerEx
        MOV     A,#0x4
        LCALL   ?DEALLOC_XSTACK8
          CFI CFA_XSP16 add(XSP16, 12)
        MOV     A,R1
//  365     }
//  366   }
//  367   return;
??zb_AllowBind_1:
        MOV     R7,#0x4
        LJMP    ?BANKED_LEAVE_XDATA
          CFI R6 SameValue
          CFI VB SameValue
          CFI V0 SameValue
          CFI V1 SameValue
          CFI V2 SameValue
          CFI V3 SameValue
          CFI R7 SameValue
          CFI ?RET_LOW Frame(CFA_SP, 1)
          CFI ?RET_HIGH Frame(CFA_SP, 2)
          CFI ?BRET_EXT Frame(CFA_SP, 3)
          CFI DPL0 SameValue
          CFI DPH0 SameValue
          CFI CFA_SP SP+-3
          CFI CFA_XSP16 XSP16+0
//  368 }
          CFI EndBlock cfiBlock4
//  369 /******************************************************************************
//  370  * @fn          zb_SendDataRequest
//  371  *
//  372  * @brief       The zb_SendDataRequest function initiates transmission of data
//  373  *              to a peer device
//  374  *
//  375  * @param       destination - The destination of the data.  The destination can
//  376  *                            be one of the following:
//  377  *                            - 16-Bit short address of device [0-0xfffD]
//  378  *                            - ZB_BROADCAST_ADDR sends the data to all devices
//  379  *                              in the network.
//  380  *                            - ZB_BINDING_ADDR sends the data to a previously
//  381  *                              bound device.
//  382  *
//  383  *              commandId - The command ID to send with the message.  If the
//  384  *                          ZB_BINDING_ADDR destination is used, this parameter
//  385  *                          also indicates the binding to use.
//  386  *
//  387  *              len - The size of the pData buffer in bytes
//  388  *              pData - A buffer to hold the data
//  389  *              handle - A handle used to identify the send data request.
//  390  *              txOptions - TRUE if requesting acknowledgement from the destination.
//  391  *              radius - The max number of hops the packet can travel through
//  392  *                       before it is dropped.
//  393  *
//  394  * @return      none
//  395  */

        RSEG BANKED_CODE:CODE:NOROOT(0)
//  396 void zb_SendDataRequest ( uint16 destination, uint16 commandId, uint8 len,
zb_SendDataRequest:
          CFI Block cfiBlock5 Using cfiCommon0
          CFI Function zb_SendDataRequest
        CODE
//  397                           uint8 *pData, uint8 handle, uint8 txOptions, uint8 radius )
//  398 {
        FUNCALL zb_SendDataRequest, NLME_IsAddressBroadcast
        LOCFRAME ISTACK, 0, STACK
        LOCFRAME PSTACK, 0, STACK
        LOCFRAME XSTACK, 24, STACK
        LOCFRAME IOVERLAY, 0, STATIC
        LOCFRAME DOVERLAY, 0, STATIC
        ARGFRAME ISTACK, 0, STACK
        ARGFRAME PSTACK, 0, STACK
        ARGFRAME XSTACK, 24, STACK
        ARGFRAME IOVERLAY, 0, STATIC
        ARGFRAME DOVERLAY, 0, STATIC
        FUNCALL zb_SendDataRequest, AF_DataRequest
        LOCFRAME ISTACK, 0, STACK
        LOCFRAME PSTACK, 0, STACK
        LOCFRAME XSTACK, 33, STACK
        LOCFRAME IOVERLAY, 0, STATIC
        LOCFRAME DOVERLAY, 0, STATIC
        ARGFRAME ISTACK, 0, STACK
        ARGFRAME PSTACK, 0, STACK
        ARGFRAME XSTACK, 33, STACK
        ARGFRAME IOVERLAY, 0, STATIC
        ARGFRAME DOVERLAY, 0, STATIC
        FUNCALL zb_SendDataRequest, SAPI_SendCback
        LOCFRAME ISTACK, 0, STACK
        LOCFRAME PSTACK, 0, STACK
        LOCFRAME XSTACK, 24, STACK
        LOCFRAME IOVERLAY, 0, STATIC
        LOCFRAME DOVERLAY, 0, STATIC
        ARGFRAME ISTACK, 0, STACK
        ARGFRAME PSTACK, 0, STACK
        ARGFRAME XSTACK, 24, STACK
        ARGFRAME IOVERLAY, 0, STATIC
        ARGFRAME DOVERLAY, 0, STATIC
        REQUIRE ?V0
        REQUIRE ?V1
        REQUIRE ?V2
        REQUIRE ?V3
        MOV     A,#-0xc
        LCALL   ?BANKED_ENTER_XDATA
          CFI DPH0 load(1, XDATA, add(CFA_XSP16, literal(-1)))
          CFI DPL0 load(1, XDATA, add(CFA_XSP16, literal(-2)))
          CFI ?BRET_EXT load(1, XDATA, add(CFA_XSP16, literal(-3)))
          CFI ?RET_HIGH load(1, XDATA, add(CFA_XSP16, literal(-4)))
          CFI ?RET_LOW load(1, XDATA, add(CFA_XSP16, literal(-5)))
          CFI R7 load(1, XDATA, add(CFA_XSP16, literal(-6)))
          CFI V3 load(1, XDATA, add(CFA_XSP16, literal(-7)))
          CFI V2 load(1, XDATA, add(CFA_XSP16, literal(-8)))
          CFI V1 load(1, XDATA, add(CFA_XSP16, literal(-9)))
          CFI V0 load(1, XDATA, add(CFA_XSP16, literal(-10)))
          CFI VB load(1, XDATA, add(CFA_XSP16, literal(-11)))
          CFI R6 load(1, XDATA, add(CFA_XSP16, literal(-12)))
          CFI CFA_SP SP+0
          CFI CFA_XSP16 add(XSP16, 12)
        ; Saved register size: 12
        ; Auto size: 12
        MOV     A,#-0xc
        LCALL   ?ALLOC_XSTACK8
          CFI CFA_XSP16 add(XSP16, 24)
        MOV     ?V0,R4
        MOV     ?V1,R5
        MOV     A,R1
        MOV     R7,A
        MOV     A,#0x1b
        LCALL   ?XSTACK_DISP0_8
        MOVX    A,@DPTR
        MOV     R6,A
//  399   afStatus_t status;
//  400   afAddrType_t dstAddr;
//  401 
//  402   txOptions |= AF_DISCV_ROUTE;
//  403 
//  404   // Set the destination address
//  405   if (destination == ZB_BINDING_ADDR)
        MOV     A,#-0x2
        XRL     A,R2
        JNZ     ??zb_SendDataRequest_0
        MOV     A,#-0x1
        XRL     A,R3
??zb_SendDataRequest_0:
        JNZ     ??zb_SendDataRequest_1
//  406   {
//  407     // Binding
//  408     dstAddr.addrMode = afAddrNotPresent;
        MOV     A,#0x8
        LCALL   ?XSTACK_DISP0_8
        MOV     A,#0x0
        MOVX    @DPTR,A
        SJMP    ??zb_SendDataRequest_2
//  409   }
//  410   else
//  411   {
//  412     // Use short address
//  413     dstAddr.addr.shortAddr = destination;
??zb_SendDataRequest_1:
        MOV     DPL,?XSP + 0
        MOV     DPH,?XSP + 1
        MOV     A,R2
        MOVX    @DPTR,A
        INC     DPTR
        MOV     A,R3
        MOVX    @DPTR,A
//  414     dstAddr.addrMode = afAddr16Bit;
        MOV     A,#0x8
        LCALL   ?XSTACK_DISP0_8
        MOV     A,#0x2
        MOVX    @DPTR,A
//  415 
//  416     if ( ADDR_NOT_BCAST != NLME_IsAddressBroadcast( destination ) )
        ; Setup parameters for call to function NLME_IsAddressBroadcast
        LCALL   `??NLME_IsAddressBroadcast::?relay`; Banked call to: NLME_IsAddressBroadcast
        MOV     A,R1
        JZ      ??zb_SendDataRequest_2
//  417     {
//  418       txOptions &= ~AF_ACK_REQUEST;
        CLR     C
        MOV     A,R6
        MOV     0xE0 /* A   */.4,C
        MOV     R6,A
//  419     }
//  420   }
//  421 
//  422   dstAddr.panId = 0;                                    // Not an inter-pan message.
??zb_SendDataRequest_2:
        MOV     A,#0xa
        LCALL   ?XSTACK_DISP0_8
        MOV     A,#0x0
        MOVX    @DPTR,A
        INC     DPTR
        MOV     A,#0x0
        MOVX    @DPTR,A
//  423   dstAddr.endPoint = sapi_epDesc.simpleDesc->EndPoint;  // Set the endpoint.
        MOV     DPTR,#sapi_epDesc + 3
        MOVX    A,@DPTR
        MOV     R0,A
        INC     DPTR
        MOVX    A,@DPTR
        MOV     DPH,A
        MOV     DPL,R0
        MOVX    A,@DPTR
        PUSH    A
          CFI CFA_SP SP+-1
        MOV     A,#0x9
        LCALL   ?XSTACK_DISP0_8
        POP     A
          CFI CFA_SP SP+0
        MOVX    @DPTR,A
//  424 
//  425   // Send the message
//  426   status = AF_DataRequest(&dstAddr, &sapi_epDesc, commandId, len,
//  427                           pData, &handle, txOptions, radius);
        ; Setup parameters for call to function AF_DataRequest
        MOV     A,#0x1c
        LCALL   ?XSTACK_DISP0_8
        MOVX    A,@DPTR
        MOV     ?V2,A
        MOV     R0,#?V2
        LCALL   ?PUSH_XSTACK_I_ONE
          CFI CFA_XSP16 add(XSP16, 25)
        MOV     A,#0x1b
        LCALL   ?XSTACK_DISP100_8
        MOV     ?V2,R0
        MOV     ?V3,R1
        MOV     R0,#?V2
        LCALL   ?PUSH_XSTACK_I_TWO
          CFI CFA_XSP16 add(XSP16, 27)
        MOV     A,#0x1b
        LCALL   ?XSTACK_DISP0_8
        LCALL   ?PUSH_XSTACK8_X_TWO
          CFI CFA_XSP16 add(XSP16, 29)
        MOV     ?V2,R7
        MOV     ?V3,#0x0
        MOV     R0,#?V2
        LCALL   ?PUSH_XSTACK_I_TWO
          CFI CFA_XSP16 add(XSP16, 31)
        MOV     R0,#?V0
        LCALL   ?PUSH_XSTACK_I_TWO
          CFI CFA_XSP16 add(XSP16, 33)
        MOV     A,R6
        MOV     R1,A
        MOV     R4,#sapi_epDesc & 0xff
        MOV     R5,#(sapi_epDesc >> 8) & 0xff
        MOV     A,#0x9
        LCALL   ?XSTACK_DISP101_8
        LCALL   `??AF_DataRequest::?relay`; Banked call to: AF_DataRequest
        MOV     A,#0x9
        LCALL   ?DEALLOC_XSTACK8
          CFI CFA_XSP16 add(XSP16, 24)
        MOV     A,R1
        MOV     R2,A
//  428 
//  429   if (status != afStatus_SUCCESS)
        MOV     A,R2
        JZ      ??zb_SendDataRequest_3
//  430   {
//  431     SAPI_SendCback( SAPICB_DATA_CNF, status, handle );
        ; Setup parameters for call to function SAPI_SendCback
        MOV     A,#0x1a
        LCALL   ?XSTACK_DISP0_8
        MOVX    A,@DPTR
        MOV     R4,A
        MOV     R5,#0x0
        MOV     R1,#-0x20
        LCALL   `??SAPI_SendCback::?relay`; Banked call to: SAPI_SendCback
//  432   }
//  433 }
??zb_SendDataRequest_3:
        MOV     A,#0xc
        LCALL   ?DEALLOC_XSTACK8
          CFI CFA_XSP16 add(XSP16, 12)
        MOV     R7,#0x4
        LJMP    ?BANKED_LEAVE_XDATA
          CFI R6 SameValue
          CFI VB SameValue
          CFI V0 SameValue
          CFI V1 SameValue
          CFI V2 SameValue
          CFI V3 SameValue
          CFI R7 SameValue
          CFI ?RET_LOW Frame(CFA_SP, 1)
          CFI ?RET_HIGH Frame(CFA_SP, 2)
          CFI ?BRET_EXT Frame(CFA_SP, 3)
          CFI DPL0 SameValue
          CFI DPH0 SameValue
          CFI CFA_SP SP+-3
          CFI CFA_XSP16 XSP16+0
          CFI EndBlock cfiBlock5
//  434 
//  435 /******************************************************************************
//  436  * @fn          zb_ReadConfiguration
//  437  *
//  438  * @brief       The zb_ReadConfiguration function is used to get a
//  439  *              Configuration Protperty from Nonvolatile memory.
//  440  *
//  441  * @param       configId - The identifier for the configuration property
//  442  *              len - The size of the pValue buffer in bytes
//  443  *              pValue - A buffer to hold the configuration property
//  444  *
//  445  * @return      none
//  446  */

        RSEG BANKED_CODE:CODE:NOROOT(0)
//  447 uint8 zb_ReadConfiguration( uint8 configId, uint8 len, void *pValue )
zb_ReadConfiguration:
          CFI Block cfiBlock6 Using cfiCommon0
          CFI Function zb_ReadConfiguration
        CODE
//  448 {
        FUNCALL zb_ReadConfiguration, osal_nv_item_len
        LOCFRAME ISTACK, 0, STACK
        LOCFRAME PSTACK, 0, STACK
        LOCFRAME XSTACK, 12, STACK
        LOCFRAME IOVERLAY, 0, STATIC
        LOCFRAME DOVERLAY, 0, STATIC
        ARGFRAME ISTACK, 0, STACK
        ARGFRAME PSTACK, 0, STACK
        ARGFRAME XSTACK, 12, STACK
        ARGFRAME IOVERLAY, 0, STATIC
        ARGFRAME DOVERLAY, 0, STATIC
        FUNCALL zb_ReadConfiguration, osal_nv_read
        LOCFRAME ISTACK, 0, STACK
        LOCFRAME PSTACK, 0, STACK
        LOCFRAME XSTACK, 16, STACK
        LOCFRAME IOVERLAY, 0, STATIC
        LOCFRAME DOVERLAY, 0, STATIC
        ARGFRAME ISTACK, 0, STACK
        ARGFRAME PSTACK, 0, STACK
        ARGFRAME XSTACK, 16, STACK
        ARGFRAME IOVERLAY, 0, STATIC
        ARGFRAME DOVERLAY, 0, STATIC
        REQUIRE ?V0
        REQUIRE ?V1
        REQUIRE ?V2
        REQUIRE ?V3
        MOV     A,#-0xc
        LCALL   ?BANKED_ENTER_XDATA
          CFI DPH0 load(1, XDATA, add(CFA_XSP16, literal(-1)))
          CFI DPL0 load(1, XDATA, add(CFA_XSP16, literal(-2)))
          CFI ?BRET_EXT load(1, XDATA, add(CFA_XSP16, literal(-3)))
          CFI ?RET_HIGH load(1, XDATA, add(CFA_XSP16, literal(-4)))
          CFI ?RET_LOW load(1, XDATA, add(CFA_XSP16, literal(-5)))
          CFI R7 load(1, XDATA, add(CFA_XSP16, literal(-6)))
          CFI V3 load(1, XDATA, add(CFA_XSP16, literal(-7)))
          CFI V2 load(1, XDATA, add(CFA_XSP16, literal(-8)))
          CFI V1 load(1, XDATA, add(CFA_XSP16, literal(-9)))
          CFI V0 load(1, XDATA, add(CFA_XSP16, literal(-10)))
          CFI VB load(1, XDATA, add(CFA_XSP16, literal(-11)))
          CFI R6 load(1, XDATA, add(CFA_XSP16, literal(-12)))
          CFI CFA_SP SP+0
          CFI CFA_XSP16 add(XSP16, 12)
        ; Saved register size: 12
        ; Auto size: 0
        MOV     A,R1
        MOV     R7,A
        MOV     A,R2
        MOV     R6,A
        MOV     ?V2,R4
        MOV     ?V3,R5
//  449   uint8 size;
//  450 
//  451   size = (uint8)osal_nv_item_len( configId );
        ; Setup parameters for call to function osal_nv_item_len
        MOV     A,R7
        MOV     R2,A
        MOV     R3,#0x0
        LCALL   `??osal_nv_item_len::?relay`; Banked call to: osal_nv_item_len
        MOV     A,R2
        MOV     ?V0,A
//  452   if ( size > len )
        MOV     A,R6
        CLR     C
        SUBB    A,?V0
        JNC     ??zb_ReadConfiguration_0
//  453   {
//  454     return ZFailure;
        MOV     R1,#0x1
        SJMP    ??zb_ReadConfiguration_1
//  455   }
//  456   else
//  457   {
//  458     return( osal_nv_read(configId, 0, size, pValue) );
??zb_ReadConfiguration_0:
        ; Setup parameters for call to function osal_nv_read
        MOV     R0,#?V2
        LCALL   ?PUSH_XSTACK_I_TWO
          CFI CFA_XSP16 add(XSP16, 14)
        MOV     ?V1,#0x0
        MOV     R0,#?V0
        LCALL   ?PUSH_XSTACK_I_TWO
          CFI CFA_XSP16 add(XSP16, 16)
        MOV     R4,#0x0
        MOV     R5,#0x0
        MOV     A,R7
        MOV     R2,A
        MOV     R3,#0x0
        LCALL   `??osal_nv_read::?relay`; Banked call to: osal_nv_read
        MOV     A,#0x4
        LCALL   ?DEALLOC_XSTACK8
          CFI CFA_XSP16 add(XSP16, 12)
??zb_ReadConfiguration_1:
        MOV     R7,#0x4
        LJMP    ?BANKED_LEAVE_XDATA
          CFI R6 SameValue
          CFI VB SameValue
          CFI V0 SameValue
          CFI V1 SameValue
          CFI V2 SameValue
          CFI V3 SameValue
          CFI R7 SameValue
          CFI ?RET_LOW Frame(CFA_SP, 1)
          CFI ?RET_HIGH Frame(CFA_SP, 2)
          CFI ?BRET_EXT Frame(CFA_SP, 3)
          CFI DPL0 SameValue
          CFI DPH0 SameValue
          CFI CFA_SP SP+-3
          CFI CFA_XSP16 XSP16+0
//  459   }
//  460 }
          CFI EndBlock cfiBlock6
//  461 /******************************************************************************
//  462  * @fn          zb_WriteConfiguration
//  463  *
//  464  * @brief       The zb_WriteConfiguration function is used to write a
//  465  *              Configuration Property to nonvolatile memory.
//  466  *
//  467  * @param       configId - The identifier for the configuration property
//  468  *              len - The size of the pValue buffer in bytes
//  469  *              pValue - A buffer containing the new value of the
//  470  *                       configuration property
//  471  *
//  472  * @return      none
//  473  */

        RSEG BANKED_CODE:CODE:NOROOT(0)
//  474 uint8 zb_WriteConfiguration( uint8 configId, uint8 len, void *pValue )
zb_WriteConfiguration:
          CFI Block cfiBlock7 Using cfiCommon0
          CFI Function zb_WriteConfiguration
        CODE
//  475 {
        FUNCALL zb_WriteConfiguration, osal_nv_write
        LOCFRAME ISTACK, 0, STACK
        LOCFRAME PSTACK, 0, STACK
        LOCFRAME XSTACK, 14, STACK
        LOCFRAME IOVERLAY, 0, STATIC
        LOCFRAME DOVERLAY, 0, STATIC
        ARGFRAME ISTACK, 0, STACK
        ARGFRAME PSTACK, 0, STACK
        ARGFRAME XSTACK, 14, STACK
        ARGFRAME IOVERLAY, 0, STATIC
        ARGFRAME DOVERLAY, 0, STATIC
        REQUIRE ?V0
        REQUIRE ?V1
        MOV     A,#-0xa
        LCALL   ?BANKED_ENTER_XDATA
          CFI DPH0 load(1, XDATA, add(CFA_XSP16, literal(-1)))
          CFI DPL0 load(1, XDATA, add(CFA_XSP16, literal(-2)))
          CFI ?BRET_EXT load(1, XDATA, add(CFA_XSP16, literal(-3)))
          CFI ?RET_HIGH load(1, XDATA, add(CFA_XSP16, literal(-4)))
          CFI ?RET_LOW load(1, XDATA, add(CFA_XSP16, literal(-5)))
          CFI R7 load(1, XDATA, add(CFA_XSP16, literal(-6)))
          CFI V1 load(1, XDATA, add(CFA_XSP16, literal(-7)))
          CFI V0 load(1, XDATA, add(CFA_XSP16, literal(-8)))
          CFI VB load(1, XDATA, add(CFA_XSP16, literal(-9)))
          CFI R6 load(1, XDATA, add(CFA_XSP16, literal(-10)))
          CFI CFA_SP SP+0
          CFI CFA_XSP16 add(XSP16, 10)
        ; Saved register size: 10
        ; Auto size: 0
        MOV     A,R1
        MOV     R7,A
        MOV     A,R2
        MOV     R6,A
//  476   return( osal_nv_write(configId, 0, len, pValue) );
        ; Setup parameters for call to function osal_nv_write
        MOV     ?V0,R4
        MOV     ?V1,R5
        MOV     R0,#?V0
        LCALL   ?PUSH_XSTACK_I_TWO
          CFI CFA_XSP16 add(XSP16, 12)
        MOV     ?V0,R6
        MOV     ?V1,#0x0
        MOV     R0,#?V0
        LCALL   ?PUSH_XSTACK_I_TWO
          CFI CFA_XSP16 add(XSP16, 14)
        MOV     R4,#0x0
        MOV     R5,#0x0
        MOV     A,R7
        MOV     R2,A
        MOV     R3,#0x0
        LCALL   `??osal_nv_write::?relay`; Banked call to: osal_nv_write
        MOV     A,#0x4
        LCALL   ?DEALLOC_XSTACK8
          CFI CFA_XSP16 add(XSP16, 10)
        MOV     R7,#0x2
        LJMP    ?BANKED_LEAVE_XDATA
          CFI R6 SameValue
          CFI VB SameValue
          CFI V0 SameValue
          CFI V1 SameValue
          CFI R7 SameValue
          CFI ?RET_LOW Frame(CFA_SP, 1)
          CFI ?RET_HIGH Frame(CFA_SP, 2)
          CFI ?BRET_EXT Frame(CFA_SP, 3)
          CFI DPL0 SameValue
          CFI DPH0 SameValue
          CFI CFA_SP SP+-3
          CFI CFA_XSP16 XSP16+0
//  477 }
          CFI EndBlock cfiBlock7
//  478 /******************************************************************************
//  479  * @fn          zb_GetDeviceInfo
//  480  *
//  481  * @brief       The zb_GetDeviceInfo function retrieves a Device Information
//  482  *              Property.
//  483  *
//  484  * @param       param - The identifier for the device information
//  485  *              pValue - A buffer to hold the device information
//  486  *
//  487  * @return      none
//  488  */

        RSEG BANKED_CODE:CODE:NOROOT(0)
//  489 void zb_GetDeviceInfo ( uint8 param, void *pValue )
zb_GetDeviceInfo:
          CFI Block cfiBlock8 Using cfiCommon0
          CFI Function zb_GetDeviceInfo
        CODE
//  490 {
        FUNCALL zb_GetDeviceInfo, osal_memcpy
        LOCFRAME ISTACK, 0, STACK
        LOCFRAME PSTACK, 0, STACK
        LOCFRAME XSTACK, 14, STACK
        LOCFRAME IOVERLAY, 0, STATIC
        LOCFRAME DOVERLAY, 0, STATIC
        ARGFRAME ISTACK, 0, STACK
        ARGFRAME PSTACK, 0, STACK
        ARGFRAME XSTACK, 14, STACK
        ARGFRAME IOVERLAY, 0, STATIC
        ARGFRAME DOVERLAY, 0, STATIC
        FUNCALL zb_GetDeviceInfo, osal_memcpy
        LOCFRAME ISTACK, 0, STACK
        LOCFRAME PSTACK, 0, STACK
        LOCFRAME XSTACK, 14, STACK
        LOCFRAME IOVERLAY, 0, STATIC
        LOCFRAME DOVERLAY, 0, STATIC
        ARGFRAME ISTACK, 0, STACK
        ARGFRAME PSTACK, 0, STACK
        ARGFRAME XSTACK, 14, STACK
        ARGFRAME IOVERLAY, 0, STATIC
        ARGFRAME DOVERLAY, 0, STATIC
        FUNCALL zb_GetDeviceInfo, osal_memcpy
        LOCFRAME ISTACK, 0, STACK
        LOCFRAME PSTACK, 0, STACK
        LOCFRAME XSTACK, 14, STACK
        LOCFRAME IOVERLAY, 0, STATIC
        LOCFRAME DOVERLAY, 0, STATIC
        ARGFRAME ISTACK, 0, STACK
        ARGFRAME PSTACK, 0, STACK
        ARGFRAME XSTACK, 14, STACK
        ARGFRAME IOVERLAY, 0, STATIC
        ARGFRAME DOVERLAY, 0, STATIC
        FUNCALL zb_GetDeviceInfo, osal_memcpy
        LOCFRAME ISTACK, 0, STACK
        LOCFRAME PSTACK, 0, STACK
        LOCFRAME XSTACK, 14, STACK
        LOCFRAME IOVERLAY, 0, STATIC
        LOCFRAME DOVERLAY, 0, STATIC
        ARGFRAME ISTACK, 0, STACK
        ARGFRAME PSTACK, 0, STACK
        ARGFRAME XSTACK, 14, STACK
        ARGFRAME IOVERLAY, 0, STATIC
        ARGFRAME DOVERLAY, 0, STATIC
        FUNCALL zb_GetDeviceInfo, osal_memcpy
        LOCFRAME ISTACK, 0, STACK
        LOCFRAME PSTACK, 0, STACK
        LOCFRAME XSTACK, 14, STACK
        LOCFRAME IOVERLAY, 0, STATIC
        LOCFRAME DOVERLAY, 0, STATIC
        ARGFRAME ISTACK, 0, STACK
        ARGFRAME PSTACK, 0, STACK
        ARGFRAME XSTACK, 14, STACK
        ARGFRAME IOVERLAY, 0, STATIC
        ARGFRAME DOVERLAY, 0, STATIC
        FUNCALL zb_GetDeviceInfo, osal_memcpy
        LOCFRAME ISTACK, 0, STACK
        LOCFRAME PSTACK, 0, STACK
        LOCFRAME XSTACK, 14, STACK
        LOCFRAME IOVERLAY, 0, STATIC
        LOCFRAME DOVERLAY, 0, STATIC
        ARGFRAME ISTACK, 0, STACK
        ARGFRAME PSTACK, 0, STACK
        ARGFRAME XSTACK, 14, STACK
        ARGFRAME IOVERLAY, 0, STATIC
        ARGFRAME DOVERLAY, 0, STATIC
        FUNCALL zb_GetDeviceInfo, osal_memcpy
        LOCFRAME ISTACK, 0, STACK
        LOCFRAME PSTACK, 0, STACK
        LOCFRAME XSTACK, 14, STACK
        LOCFRAME IOVERLAY, 0, STATIC
        LOCFRAME DOVERLAY, 0, STATIC
        ARGFRAME ISTACK, 0, STACK
        ARGFRAME PSTACK, 0, STACK
        ARGFRAME XSTACK, 14, STACK
        ARGFRAME IOVERLAY, 0, STATIC
        ARGFRAME DOVERLAY, 0, STATIC
        FUNCALL zb_GetDeviceInfo, osal_memcpy
        LOCFRAME ISTACK, 0, STACK
        LOCFRAME PSTACK, 0, STACK
        LOCFRAME XSTACK, 14, STACK
        LOCFRAME IOVERLAY, 0, STATIC
        LOCFRAME DOVERLAY, 0, STATIC
        ARGFRAME ISTACK, 0, STACK
        ARGFRAME PSTACK, 0, STACK
        ARGFRAME XSTACK, 14, STACK
        ARGFRAME IOVERLAY, 0, STATIC
        ARGFRAME DOVERLAY, 0, STATIC
        REQUIRE ?V0
        REQUIRE ?V1
        REQUIRE ?V2
        MOV     A,#-0xb
        LCALL   ?BANKED_ENTER_XDATA
          CFI DPH0 load(1, XDATA, add(CFA_XSP16, literal(-1)))
          CFI DPL0 load(1, XDATA, add(CFA_XSP16, literal(-2)))
          CFI ?BRET_EXT load(1, XDATA, add(CFA_XSP16, literal(-3)))
          CFI ?RET_HIGH load(1, XDATA, add(CFA_XSP16, literal(-4)))
          CFI ?RET_LOW load(1, XDATA, add(CFA_XSP16, literal(-5)))
          CFI R7 load(1, XDATA, add(CFA_XSP16, literal(-6)))
          CFI V2 load(1, XDATA, add(CFA_XSP16, literal(-7)))
          CFI V1 load(1, XDATA, add(CFA_XSP16, literal(-8)))
          CFI V0 load(1, XDATA, add(CFA_XSP16, literal(-9)))
          CFI VB load(1, XDATA, add(CFA_XSP16, literal(-10)))
          CFI R6 load(1, XDATA, add(CFA_XSP16, literal(-11)))
          CFI CFA_SP SP+0
          CFI CFA_XSP16 add(XSP16, 11)
        ; Saved register size: 11
        ; Auto size: 0
        MOV     A,R1
        MOV     R6,A
//  491   switch(param)
        MOV     A,R6
        JZ      ??zb_GetDeviceInfo_0
        DEC     A
        JZ      ??zb_GetDeviceInfo_1
        DEC     A
        JZ      ??zb_GetDeviceInfo_2
        DEC     A
        JZ      ??zb_GetDeviceInfo_3
        DEC     A
        JNZ     $+5
        LJMP    ??zb_GetDeviceInfo_4 & 0xFFFF
        DEC     A
        JNZ     $+5
        LJMP    ??zb_GetDeviceInfo_5 & 0xFFFF
        DEC     A
        JNZ     $+5
        LJMP    ??zb_GetDeviceInfo_6 & 0xFFFF
        DEC     A
        JNZ     $+5
        LJMP    ??zb_GetDeviceInfo_7 & 0xFFFF
        LJMP    ??zb_GetDeviceInfo_8 & 0xFFFF
//  492   {
//  493     case ZB_INFO_DEV_STATE:
//  494       osal_memcpy(pValue, &devState, sizeof(uint8));
??zb_GetDeviceInfo_0:
        ; Setup parameters for call to function osal_memcpy
        MOV     ?V0,#devState & 0xff
        MOV     ?V1,#(devState >> 8) & 0xff
        MOV     ?V2,#0x0
        MOV     R0,#?V0
        LCALL   ?PUSH_XSTACK_I_THREE
          CFI CFA_XSP16 add(XSP16, 14)
        MOV     R4,#0x1
        MOV     R5,#0x0
        LCALL   `??osal_memcpy::?relay`; Banked call to: osal_memcpy
        MOV     A,#0x3
        LCALL   ?DEALLOC_XSTACK8
          CFI CFA_XSP16 add(XSP16, 11)
//  495       break;
        LJMP    ??zb_GetDeviceInfo_8 & 0xFFFF
//  496     case ZB_INFO_IEEE_ADDR:
//  497       osal_memcpy(pValue, &aExtendedAddress, Z_EXTADDR_LEN);
??zb_GetDeviceInfo_1:
        ; Setup parameters for call to function osal_memcpy
        MOV     ?V0,#aExtendedAddress & 0xff
        MOV     ?V1,#(aExtendedAddress >> 8) & 0xff
        MOV     ?V2,#0x0
        MOV     R0,#?V0
        LCALL   ?PUSH_XSTACK_I_THREE
          CFI CFA_XSP16 add(XSP16, 14)
        MOV     R4,#0x8
        MOV     R5,#0x0
        LCALL   `??osal_memcpy::?relay`; Banked call to: osal_memcpy
        MOV     A,#0x3
        LCALL   ?DEALLOC_XSTACK8
          CFI CFA_XSP16 add(XSP16, 11)
//  498       break;
        LJMP    ??zb_GetDeviceInfo_8 & 0xFFFF
//  499     case ZB_INFO_SHORT_ADDR:
//  500       osal_memcpy(pValue, &_NIB.nwkDevAddress, sizeof(uint16));
??zb_GetDeviceInfo_2:
        ; Setup parameters for call to function osal_memcpy
        MOV     ?V0,#(_NIB + 20) & 0xff
        MOV     ?V1,#((_NIB + 20) >> 8) & 0xff
        MOV     ?V2,#0x0
        MOV     R0,#?V0
        LCALL   ?PUSH_XSTACK_I_THREE
          CFI CFA_XSP16 add(XSP16, 14)
        MOV     R4,#0x2
        MOV     R5,#0x0
        LCALL   `??osal_memcpy::?relay`; Banked call to: osal_memcpy
        MOV     A,#0x3
        LCALL   ?DEALLOC_XSTACK8
          CFI CFA_XSP16 add(XSP16, 11)
//  501       break;
        LJMP    ??zb_GetDeviceInfo_8 & 0xFFFF
//  502     case ZB_INFO_PARENT_SHORT_ADDR:
//  503       osal_memcpy(pValue, &_NIB.nwkCoordAddress, sizeof(uint16));
??zb_GetDeviceInfo_3:
        ; Setup parameters for call to function osal_memcpy
        MOV     ?V0,#(_NIB + 23) & 0xff
        MOV     ?V1,#((_NIB + 23) >> 8) & 0xff
        MOV     ?V2,#0x0
        MOV     R0,#?V0
        LCALL   ?PUSH_XSTACK_I_THREE
          CFI CFA_XSP16 add(XSP16, 14)
        MOV     R4,#0x2
        MOV     R5,#0x0
        LCALL   `??osal_memcpy::?relay`; Banked call to: osal_memcpy
        MOV     A,#0x3
        LCALL   ?DEALLOC_XSTACK8
          CFI CFA_XSP16 add(XSP16, 11)
//  504       break;
        SJMP    ??zb_GetDeviceInfo_8
//  505     case ZB_INFO_PARENT_IEEE_ADDR:
//  506       osal_memcpy(pValue, &_NIB.nwkCoordExtAddress, Z_EXTADDR_LEN);
??zb_GetDeviceInfo_4:
        ; Setup parameters for call to function osal_memcpy
        MOV     ?V0,#(_NIB + 25) & 0xff
        MOV     ?V1,#((_NIB + 25) >> 8) & 0xff
        MOV     ?V2,#0x0
        MOV     R0,#?V0
        LCALL   ?PUSH_XSTACK_I_THREE
          CFI CFA_XSP16 add(XSP16, 14)
        MOV     R4,#0x8
        MOV     R5,#0x0
        LCALL   `??osal_memcpy::?relay`; Banked call to: osal_memcpy
        MOV     A,#0x3
        LCALL   ?DEALLOC_XSTACK8
          CFI CFA_XSP16 add(XSP16, 11)
//  507       break;
        SJMP    ??zb_GetDeviceInfo_8
//  508     case ZB_INFO_CHANNEL:
//  509       osal_memcpy(pValue, &_NIB.nwkLogicalChannel, sizeof(uint8));
??zb_GetDeviceInfo_5:
        ; Setup parameters for call to function osal_memcpy
        MOV     ?V0,#(_NIB + 22) & 0xff
        MOV     ?V1,#((_NIB + 22) >> 8) & 0xff
        MOV     ?V2,#0x0
        MOV     R0,#?V0
        LCALL   ?PUSH_XSTACK_I_THREE
          CFI CFA_XSP16 add(XSP16, 14)
        MOV     R4,#0x1
        MOV     R5,#0x0
        LCALL   `??osal_memcpy::?relay`; Banked call to: osal_memcpy
        MOV     A,#0x3
        LCALL   ?DEALLOC_XSTACK8
          CFI CFA_XSP16 add(XSP16, 11)
//  510       break;
        SJMP    ??zb_GetDeviceInfo_8
//  511     case ZB_INFO_PAN_ID:
//  512       osal_memcpy(pValue, &_NIB.nwkPanId, sizeof(uint16));
??zb_GetDeviceInfo_6:
        ; Setup parameters for call to function osal_memcpy
        MOV     ?V0,#(_NIB + 33) & 0xff
        MOV     ?V1,#((_NIB + 33) >> 8) & 0xff
        MOV     ?V2,#0x0
        MOV     R0,#?V0
        LCALL   ?PUSH_XSTACK_I_THREE
          CFI CFA_XSP16 add(XSP16, 14)
        MOV     R4,#0x2
        MOV     R5,#0x0
        LCALL   `??osal_memcpy::?relay`; Banked call to: osal_memcpy
        MOV     A,#0x3
        LCALL   ?DEALLOC_XSTACK8
          CFI CFA_XSP16 add(XSP16, 11)
//  513       break;
        SJMP    ??zb_GetDeviceInfo_8
//  514     case ZB_INFO_EXT_PAN_ID:
//  515       osal_memcpy(pValue, &_NIB.extendedPANID, Z_EXTADDR_LEN);
??zb_GetDeviceInfo_7:
        ; Setup parameters for call to function osal_memcpy
        MOV     ?V0,#(_NIB + 53) & 0xff
        MOV     ?V1,#((_NIB + 53) >> 8) & 0xff
        MOV     ?V2,#0x0
        MOV     R0,#?V0
        LCALL   ?PUSH_XSTACK_I_THREE
          CFI CFA_XSP16 add(XSP16, 14)
        MOV     R4,#0x8
        MOV     R5,#0x0
        LCALL   `??osal_memcpy::?relay`; Banked call to: osal_memcpy
        MOV     A,#0x3
        LCALL   ?DEALLOC_XSTACK8
          CFI CFA_XSP16 add(XSP16, 11)
//  516       break;
//  517   }
//  518 }
??zb_GetDeviceInfo_8:
        MOV     R7,#0x3
        LJMP    ?BANKED_LEAVE_XDATA
          CFI R6 SameValue
          CFI VB SameValue
          CFI V0 SameValue
          CFI V1 SameValue
          CFI V2 SameValue
          CFI R7 SameValue
          CFI ?RET_LOW Frame(CFA_SP, 1)
          CFI ?RET_HIGH Frame(CFA_SP, 2)
          CFI ?BRET_EXT Frame(CFA_SP, 3)
          CFI DPL0 SameValue
          CFI DPH0 SameValue
          CFI CFA_SP SP+-3
          CFI CFA_XSP16 XSP16+0
          CFI EndBlock cfiBlock8
//  519 
//  520 /******************************************************************************
//  521  * @fn          zb_FindDeviceRequest
//  522  *
//  523  * @brief       The zb_FindDeviceRequest function is used to determine the
//  524  *              short address for a device in the network.  The device initiating
//  525  *              a call to zb_FindDeviceRequest and the device being discovered
//  526  *              must both be a member of the same network.  When the search is
//  527  *              complete, the zv_FindDeviceConfirm callback function is called.
//  528  *
//  529  * @param       searchType - The type of search to perform. Can be one of following:
//  530  *                           ZB_IEEE_SEARCH - Search for 16-bit addr given IEEE addr.
//  531  *              searchKey - Value to search on.
//  532  *
//  533  * @return      none
//  534  */

        RSEG BANKED_CODE:CODE:NOROOT(0)
//  535 void zb_FindDeviceRequest( uint8 searchType, void *searchKey )
zb_FindDeviceRequest:
          CFI Block cfiBlock9 Using cfiCommon0
          CFI Function zb_FindDeviceRequest
        CODE
//  536 {
        FUNCALL zb_FindDeviceRequest, ZDP_NwkAddrReq
        LOCFRAME ISTACK, 0, STACK
        LOCFRAME PSTACK, 0, STACK
        LOCFRAME XSTACK, 9, STACK
        LOCFRAME IOVERLAY, 0, STATIC
        LOCFRAME DOVERLAY, 0, STATIC
        ARGFRAME ISTACK, 0, STACK
        ARGFRAME PSTACK, 0, STACK
        ARGFRAME XSTACK, 9, STACK
        ARGFRAME IOVERLAY, 0, STATIC
        ARGFRAME DOVERLAY, 0, STATIC
        MOV     A,#-0x9
        LCALL   ?BANKED_ENTER_XDATA
          CFI DPH0 load(1, XDATA, add(CFA_XSP16, literal(-1)))
          CFI DPL0 load(1, XDATA, add(CFA_XSP16, literal(-2)))
          CFI ?BRET_EXT load(1, XDATA, add(CFA_XSP16, literal(-3)))
          CFI ?RET_HIGH load(1, XDATA, add(CFA_XSP16, literal(-4)))
          CFI ?RET_LOW load(1, XDATA, add(CFA_XSP16, literal(-5)))
          CFI R7 load(1, XDATA, add(CFA_XSP16, literal(-6)))
          CFI V0 load(1, XDATA, add(CFA_XSP16, literal(-7)))
          CFI VB load(1, XDATA, add(CFA_XSP16, literal(-8)))
          CFI R6 load(1, XDATA, add(CFA_XSP16, literal(-9)))
          CFI CFA_SP SP+0
          CFI CFA_XSP16 add(XSP16, 9)
        ; Saved register size: 9
        ; Auto size: 0
        MOV     A,R1
        MOV     R6,A
//  537   if (searchType == ZB_IEEE_SEARCH)
        MOV     A,#0x1
        XRL     A,R6
        JNZ     ??zb_FindDeviceRequest_0
//  538   {
//  539     ZDP_NwkAddrReq((uint8*) searchKey, ZDP_ADDR_REQTYPE_SINGLE, 0, 0 );
        ; Setup parameters for call to function ZDP_NwkAddrReq
        MOV     R5,#0x0
        MOV     R4,#0x0
        MOV     R1,#0x0
        LCALL   `??ZDP_NwkAddrReq::?relay`; Banked call to: ZDP_NwkAddrReq
        MOV     A,R1
//  540   }
//  541 }
??zb_FindDeviceRequest_0:
        MOV     R7,#0x1
        LJMP    ?BANKED_LEAVE_XDATA
          CFI R6 SameValue
          CFI VB SameValue
          CFI V0 SameValue
          CFI R7 SameValue
          CFI ?RET_LOW Frame(CFA_SP, 1)
          CFI ?RET_HIGH Frame(CFA_SP, 2)
          CFI ?BRET_EXT Frame(CFA_SP, 3)
          CFI DPL0 SameValue
          CFI DPH0 SameValue
          CFI CFA_SP SP+-3
          CFI CFA_XSP16 XSP16+0
          CFI EndBlock cfiBlock9
//  542 /******************************************************************************
//  543  * @fn          SAPI_StartConfirm
//  544  *
//  545  * @brief       The SAPI_StartConfirm callback is called by the ZigBee stack
//  546  *              after a start request operation completes
//  547  *
//  548  * @param       status - The status of the start operation.  Status of
//  549  *                       ZB_SUCCESS indicates the start operation completed
//  550  *                       successfully.  Else the status is an error code.
//  551  *
//  552  * @return      none
//  553  */

        RSEG BANKED_CODE:CODE:NOROOT(0)
//  554 void SAPI_StartConfirm( uint8 status )
SAPI_StartConfirm:
          CFI Block cfiBlock10 Using cfiCommon0
          CFI Function SAPI_StartConfirm
        CODE
//  555 {
        FUNCALL SAPI_StartConfirm, zb_StartConfirm
        LOCFRAME ISTACK, 0, STACK
        LOCFRAME PSTACK, 0, STACK
        LOCFRAME XSTACK, 9, STACK
        LOCFRAME IOVERLAY, 0, STATIC
        LOCFRAME DOVERLAY, 0, STATIC
        ARGFRAME ISTACK, 0, STACK
        ARGFRAME PSTACK, 0, STACK
        ARGFRAME XSTACK, 9, STACK
        ARGFRAME IOVERLAY, 0, STATIC
        ARGFRAME DOVERLAY, 0, STATIC
        MOV     A,#-0x9
        LCALL   ?BANKED_ENTER_XDATA
          CFI DPH0 load(1, XDATA, add(CFA_XSP16, literal(-1)))
          CFI DPL0 load(1, XDATA, add(CFA_XSP16, literal(-2)))
          CFI ?BRET_EXT load(1, XDATA, add(CFA_XSP16, literal(-3)))
          CFI ?RET_HIGH load(1, XDATA, add(CFA_XSP16, literal(-4)))
          CFI ?RET_LOW load(1, XDATA, add(CFA_XSP16, literal(-5)))
          CFI R7 load(1, XDATA, add(CFA_XSP16, literal(-6)))
          CFI V0 load(1, XDATA, add(CFA_XSP16, literal(-7)))
          CFI VB load(1, XDATA, add(CFA_XSP16, literal(-8)))
          CFI R6 load(1, XDATA, add(CFA_XSP16, literal(-9)))
          CFI CFA_SP SP+0
          CFI CFA_XSP16 add(XSP16, 9)
        ; Saved register size: 9
        ; Auto size: 0
        MOV     A,R1
        MOV     R6,A
//  556 #if defined ( MT_SAPI_CB_FUNC )
//  557   /* First check if MT has subscribed for this callback. If so , pass it as
//  558   a event to MonitorTest and return control to calling function after that */
//  559   if ( SAPICB_CHECK( SPI_CB_SAPI_START_CNF ) )
//  560   {
//  561     zb_MTCallbackStartConfirm( status );
//  562   }
//  563   else
//  564 #endif  //MT_SAPI_CB_FUNC
//  565   {
//  566 #if ( SAPI_CB_FUNC )
//  567     zb_StartConfirm( status );
        ; Setup parameters for call to function zb_StartConfirm
        MOV     A,R6
        MOV     R1,A
        LCALL   `??zb_StartConfirm::?relay`; Banked call to: zb_StartConfirm
//  568 #endif
//  569   }
//  570 }
        MOV     R7,#0x1
        LJMP    ?BANKED_LEAVE_XDATA
          CFI R6 SameValue
          CFI VB SameValue
          CFI V0 SameValue
          CFI R7 SameValue
          CFI ?RET_LOW Frame(CFA_SP, 1)
          CFI ?RET_HIGH Frame(CFA_SP, 2)
          CFI ?BRET_EXT Frame(CFA_SP, 3)
          CFI DPL0 SameValue
          CFI DPH0 SameValue
          CFI CFA_SP SP+-3
          CFI CFA_XSP16 XSP16+0
          CFI EndBlock cfiBlock10
//  571 
//  572 /******************************************************************************
//  573  * @fn          SAPI_SendDataConfirm
//  574  *
//  575  * @brief       The SAPI_SendDataConfirm callback function is called by the
//  576  *              ZigBee after a send data operation completes
//  577  *
//  578  * @param       handle - The handle identifying the data transmission.
//  579  *              status - The status of the operation.
//  580  *
//  581  * @return      none
//  582  */

        RSEG BANKED_CODE:CODE:NOROOT(0)
//  583 void SAPI_SendDataConfirm( uint8 handle, uint8 status )
SAPI_SendDataConfirm:
          CFI Block cfiBlock11 Using cfiCommon0
          CFI Function SAPI_SendDataConfirm
        CODE
//  584 {
        FUNCALL SAPI_SendDataConfirm, zb_SendDataConfirm
        LOCFRAME ISTACK, 0, STACK
        LOCFRAME PSTACK, 0, STACK
        LOCFRAME XSTACK, 9, STACK
        LOCFRAME IOVERLAY, 0, STATIC
        LOCFRAME DOVERLAY, 0, STATIC
        ARGFRAME ISTACK, 0, STACK
        ARGFRAME PSTACK, 0, STACK
        ARGFRAME XSTACK, 9, STACK
        ARGFRAME IOVERLAY, 0, STATIC
        ARGFRAME DOVERLAY, 0, STATIC
        MOV     A,#-0x9
        LCALL   ?BANKED_ENTER_XDATA
          CFI DPH0 load(1, XDATA, add(CFA_XSP16, literal(-1)))
          CFI DPL0 load(1, XDATA, add(CFA_XSP16, literal(-2)))
          CFI ?BRET_EXT load(1, XDATA, add(CFA_XSP16, literal(-3)))
          CFI ?RET_HIGH load(1, XDATA, add(CFA_XSP16, literal(-4)))
          CFI ?RET_LOW load(1, XDATA, add(CFA_XSP16, literal(-5)))
          CFI R7 load(1, XDATA, add(CFA_XSP16, literal(-6)))
          CFI V0 load(1, XDATA, add(CFA_XSP16, literal(-7)))
          CFI VB load(1, XDATA, add(CFA_XSP16, literal(-8)))
          CFI R6 load(1, XDATA, add(CFA_XSP16, literal(-9)))
          CFI CFA_SP SP+0
          CFI CFA_XSP16 add(XSP16, 9)
        ; Saved register size: 9
        ; Auto size: 0
        MOV     A,R1
        MOV     R7,A
        MOV     A,R2
        MOV     R6,A
//  585 #if defined ( MT_SAPI_CB_FUNC )
//  586   /* First check if MT has subscribed for this callback. If so , pass it as
//  587   a event to MonitorTest and return control to calling function after that */
//  588   if ( SAPICB_CHECK( SPI_CB_SAPI_SEND_DATA_CNF ) )
//  589   {
//  590     zb_MTCallbackSendDataConfirm( handle, status );
//  591   }
//  592   else
//  593 #endif  //MT_SAPI_CB_FUNC
//  594   {
//  595 #if ( SAPI_CB_FUNC )
//  596     zb_SendDataConfirm( handle, status );
        ; Setup parameters for call to function zb_SendDataConfirm
        MOV     A,R6
        MOV     R2,A
        MOV     A,R7
        MOV     R1,A
        LCALL   `??zb_SendDataConfirm::?relay`; Banked call to: zb_SendDataConfirm
//  597 #endif
//  598   }
//  599 }
        MOV     R7,#0x1
        LJMP    ?BANKED_LEAVE_XDATA
          CFI R6 SameValue
          CFI VB SameValue
          CFI V0 SameValue
          CFI R7 SameValue
          CFI ?RET_LOW Frame(CFA_SP, 1)
          CFI ?RET_HIGH Frame(CFA_SP, 2)
          CFI ?BRET_EXT Frame(CFA_SP, 3)
          CFI DPL0 SameValue
          CFI DPH0 SameValue
          CFI CFA_SP SP+-3
          CFI CFA_XSP16 XSP16+0
          CFI EndBlock cfiBlock11
//  600 
//  601 /******************************************************************************
//  602  * @fn          SAPI_BindConfirm
//  603  *
//  604  * @brief       The SAPI_BindConfirm callback is called by the ZigBee stack
//  605  *              after a bind operation completes.
//  606  *
//  607  * @param       commandId - The command ID of the binding being confirmed.
//  608  *              status - The status of the bind operation.
//  609  *
//  610  * @return      none
//  611  */

        RSEG BANKED_CODE:CODE:NOROOT(0)
//  612 void SAPI_BindConfirm( uint16 commandId, uint8 status )
SAPI_BindConfirm:
          CFI Block cfiBlock12 Using cfiCommon0
          CFI Function SAPI_BindConfirm
        CODE
//  613 {
        FUNCALL SAPI_BindConfirm, zb_BindConfirm
        LOCFRAME ISTACK, 0, STACK
        LOCFRAME PSTACK, 0, STACK
        LOCFRAME XSTACK, 9, STACK
        LOCFRAME IOVERLAY, 0, STATIC
        LOCFRAME DOVERLAY, 0, STATIC
        ARGFRAME ISTACK, 0, STACK
        ARGFRAME PSTACK, 0, STACK
        ARGFRAME XSTACK, 9, STACK
        ARGFRAME IOVERLAY, 0, STATIC
        ARGFRAME DOVERLAY, 0, STATIC
        MOV     A,#-0x9
        LCALL   ?BANKED_ENTER_XDATA
          CFI DPH0 load(1, XDATA, add(CFA_XSP16, literal(-1)))
          CFI DPL0 load(1, XDATA, add(CFA_XSP16, literal(-2)))
          CFI ?BRET_EXT load(1, XDATA, add(CFA_XSP16, literal(-3)))
          CFI ?RET_HIGH load(1, XDATA, add(CFA_XSP16, literal(-4)))
          CFI ?RET_LOW load(1, XDATA, add(CFA_XSP16, literal(-5)))
          CFI R7 load(1, XDATA, add(CFA_XSP16, literal(-6)))
          CFI V0 load(1, XDATA, add(CFA_XSP16, literal(-7)))
          CFI VB load(1, XDATA, add(CFA_XSP16, literal(-8)))
          CFI R6 load(1, XDATA, add(CFA_XSP16, literal(-9)))
          CFI CFA_SP SP+0
          CFI CFA_XSP16 add(XSP16, 9)
        ; Saved register size: 9
        ; Auto size: 0
        MOV     A,R1
        MOV     R6,A
//  614 #if defined ( MT_SAPI_CB_FUNC )
//  615   /* First check if MT has subscribed for this callback. If so , pass it as
//  616   a event to MonitorTest and return control to calling function after that */
//  617   if ( SAPICB_CHECK( SPI_CB_SAPI_BIND_CNF ) )
//  618   {
//  619     zb_MTCallbackBindConfirm( commandId, status );
//  620   }
//  621   else
//  622 #endif  //MT_SAPI_CB_FUNC
//  623   {
//  624 #if ( SAPI_CB_FUNC )
//  625     zb_BindConfirm( commandId, status );
        ; Setup parameters for call to function zb_BindConfirm
        MOV     A,R6
        MOV     R1,A
        LCALL   `??zb_BindConfirm::?relay`; Banked call to: zb_BindConfirm
//  626 #endif
//  627   }
//  628 }
        MOV     R7,#0x1
        LJMP    ?BANKED_LEAVE_XDATA
          CFI R6 SameValue
          CFI VB SameValue
          CFI V0 SameValue
          CFI R7 SameValue
          CFI ?RET_LOW Frame(CFA_SP, 1)
          CFI ?RET_HIGH Frame(CFA_SP, 2)
          CFI ?BRET_EXT Frame(CFA_SP, 3)
          CFI DPL0 SameValue
          CFI DPH0 SameValue
          CFI CFA_SP SP+-3
          CFI CFA_XSP16 XSP16+0
          CFI EndBlock cfiBlock12
//  629 
//  630 /******************************************************************************
//  631  * @fn          SAPI_AllowBindConfirm
//  632  *
//  633  * @brief       Indicates when another device attempted to bind to this device
//  634  *
//  635  * @param
//  636  *
//  637  * @return      none
//  638  */

        RSEG BANKED_CODE:CODE:NOROOT(0)
//  639 void SAPI_AllowBindConfirm( uint16 source )
SAPI_AllowBindConfirm:
          CFI Block cfiBlock13 Using cfiCommon0
          CFI Function SAPI_AllowBindConfirm
        CODE
//  640 {
        FUNCALL SAPI_AllowBindConfirm, zb_AllowBindConfirm
        LOCFRAME ISTACK, 2, STACK
        LOCFRAME PSTACK, 0, STACK
        LOCFRAME XSTACK, 0, STACK
        LOCFRAME IOVERLAY, 0, STATIC
        LOCFRAME DOVERLAY, 0, STATIC
        ARGFRAME ISTACK, 2, STACK
        ARGFRAME PSTACK, 0, STACK
        ARGFRAME XSTACK, 0, STACK
        ARGFRAME IOVERLAY, 0, STATIC
        ARGFRAME DOVERLAY, 0, STATIC
        PUSH    DPL
          CFI DPL0 Frame(CFA_SP, 4)
          CFI CFA_SP SP+-4
        PUSH    DPH
          CFI DPH0 Frame(CFA_SP, 5)
          CFI CFA_SP SP+-5
        ; Saved register size: 2
        ; Auto size: 0
//  641   #if defined ( MT_SAPI_CB_FUNC )
//  642   /* First check if MT has subscribed for this callback. If so , pass it as
//  643   a event to MonitorTest and return control to calling function after that */
//  644   if ( SAPICB_CHECK( SPI_CB_SAPI_ALLOW_BIND_CNF ) )
//  645   {
//  646     zb_MTCallbackAllowBindConfirm( source );
//  647   }
//  648   else
//  649 #endif  //MT_SAPI_CB_FUNC
//  650   {
//  651 #if ( SAPI_CB_FUNC )
//  652     zb_AllowBindConfirm( source );
        ; Setup parameters for call to function zb_AllowBindConfirm
        LCALL   `??zb_AllowBindConfirm::?relay`; Banked call to: zb_AllowBindConfirm
//  653 #endif
//  654   }
//  655 }
        POP     DPH
          CFI DPH0 SameValue
          CFI CFA_SP SP+-4
        POP     DPL
          CFI DPL0 SameValue
          CFI CFA_SP SP+-3
        LJMP    ?BRET
          CFI EndBlock cfiBlock13
//  656 /******************************************************************************
//  657  * @fn          SAPI_FindDeviceConfirm
//  658  *
//  659  * @brief       The SAPI_FindDeviceConfirm callback function is called by the
//  660  *              ZigBee stack when a find device operation completes.
//  661  *
//  662  * @param       searchType - The type of search that was performed.
//  663  *              searchKey - Value that the search was executed on.
//  664  *              result - The result of the search.
//  665  *
//  666  * @return      none
//  667  */

        RSEG BANKED_CODE:CODE:NOROOT(0)
//  668 void SAPI_FindDeviceConfirm( uint8 searchType, uint8 *searchKey, uint8 *result )
SAPI_FindDeviceConfirm:
          CFI Block cfiBlock14 Using cfiCommon0
          CFI Function SAPI_FindDeviceConfirm
        CODE
//  669 {
        FUNCALL SAPI_FindDeviceConfirm, zb_FindDeviceConfirm
        LOCFRAME ISTACK, 0, STACK
        LOCFRAME PSTACK, 0, STACK
        LOCFRAME XSTACK, 9, STACK
        LOCFRAME IOVERLAY, 0, STATIC
        LOCFRAME DOVERLAY, 0, STATIC
        ARGFRAME ISTACK, 0, STACK
        ARGFRAME PSTACK, 0, STACK
        ARGFRAME XSTACK, 9, STACK
        ARGFRAME IOVERLAY, 0, STATIC
        ARGFRAME DOVERLAY, 0, STATIC
        MOV     A,#-0x9
        LCALL   ?BANKED_ENTER_XDATA
          CFI DPH0 load(1, XDATA, add(CFA_XSP16, literal(-1)))
          CFI DPL0 load(1, XDATA, add(CFA_XSP16, literal(-2)))
          CFI ?BRET_EXT load(1, XDATA, add(CFA_XSP16, literal(-3)))
          CFI ?RET_HIGH load(1, XDATA, add(CFA_XSP16, literal(-4)))
          CFI ?RET_LOW load(1, XDATA, add(CFA_XSP16, literal(-5)))
          CFI R7 load(1, XDATA, add(CFA_XSP16, literal(-6)))
          CFI V0 load(1, XDATA, add(CFA_XSP16, literal(-7)))
          CFI VB load(1, XDATA, add(CFA_XSP16, literal(-8)))
          CFI R6 load(1, XDATA, add(CFA_XSP16, literal(-9)))
          CFI CFA_SP SP+0
          CFI CFA_XSP16 add(XSP16, 9)
        ; Saved register size: 9
        ; Auto size: 0
        MOV     A,R1
        MOV     R6,A
//  670 #if defined ( MT_SAPI_CB_FUNC )
//  671   /* First check if MT has subscribed for this callback. If so , pass it as
//  672   a event to MonitorTest and return control to calling function after that */
//  673   if ( SAPICB_CHECK( SPI_CB_SAPI_FIND_DEV_CNF ) )
//  674   {
//  675     zb_MTCallbackFindDeviceConfirm( searchType, searchKey, result );
//  676   }
//  677   else
//  678 #endif  //MT_SAPI_CB_FUNC
//  679   {
//  680 #if ( SAPI_CB_FUNC )
//  681     zb_FindDeviceConfirm( searchType, searchKey, result );
        ; Setup parameters for call to function zb_FindDeviceConfirm
        MOV     A,R6
        MOV     R1,A
        LCALL   `??zb_FindDeviceConfirm::?relay`; Banked call to: zb_FindDeviceConfirm
//  682 #endif
//  683   }
//  684 }
        MOV     R7,#0x1
        LJMP    ?BANKED_LEAVE_XDATA
          CFI R6 SameValue
          CFI VB SameValue
          CFI V0 SameValue
          CFI R7 SameValue
          CFI ?RET_LOW Frame(CFA_SP, 1)
          CFI ?RET_HIGH Frame(CFA_SP, 2)
          CFI ?BRET_EXT Frame(CFA_SP, 3)
          CFI DPL0 SameValue
          CFI DPH0 SameValue
          CFI CFA_SP SP+-3
          CFI CFA_XSP16 XSP16+0
          CFI EndBlock cfiBlock14
//  685 /******************************************************************************
//  686  * @fn          SAPI_ReceiveDataIndication
//  687  *
//  688  * @brief       The SAPI_ReceiveDataIndication callback function is called
//  689  *              asynchronously by the ZigBee stack to notify the application
//  690  *              when data is received from a peer device.
//  691  *
//  692  * @param       source - The short address of the peer device that sent the data
//  693  *              command - The commandId associated with the data
//  694  *              len - The number of bytes in the pData parameter
//  695  *              pData - The data sent by the peer device
//  696  *
//  697  * @return      none
//  698  */

        RSEG BANKED_CODE:CODE:NOROOT(0)
//  699 void SAPI_ReceiveDataIndication( uint16 source, uint16 command, uint16 len, uint8 *pData  )
SAPI_ReceiveDataIndication:
          CFI Block cfiBlock15 Using cfiCommon0
          CFI Function SAPI_ReceiveDataIndication
        CODE
//  700 {
        FUNCALL SAPI_ReceiveDataIndication, zb_ReceiveDataIndication
        LOCFRAME ISTACK, 2, STACK
        LOCFRAME PSTACK, 0, STACK
        LOCFRAME XSTACK, 4, STACK
        LOCFRAME IOVERLAY, 0, STATIC
        LOCFRAME DOVERLAY, 0, STATIC
        ARGFRAME ISTACK, 2, STACK
        ARGFRAME PSTACK, 0, STACK
        ARGFRAME XSTACK, 4, STACK
        ARGFRAME IOVERLAY, 0, STATIC
        ARGFRAME DOVERLAY, 0, STATIC
        PUSH    DPL
          CFI DPL0 Frame(CFA_SP, 4)
          CFI CFA_SP SP+-4
        PUSH    DPH
          CFI DPH0 Frame(CFA_SP, 5)
          CFI CFA_SP SP+-5
        ; Saved register size: 2
        ; Auto size: 0
//  701 #if defined ( MT_SAPI_CB_FUNC )
//  702   /* First check if MT has subscribed for this callback. If so , pass it as
//  703   a event to MonitorTest and return control to calling function after that */
//  704   if ( SAPICB_CHECK( SPI_CB_SAPI_RCV_DATA_IND ) )
//  705   {
//  706     zb_MTCallbackReceiveDataIndication( source, command, len, pData  );
//  707   }
//  708   else
//  709 #endif  //MT_SAPI_CB_FUNC
//  710   {
//  711 #if ( SAPI_CB_FUNC )
//  712     zb_ReceiveDataIndication( source, command, len, pData  );
        ; Setup parameters for call to function zb_ReceiveDataIndication
        MOV     A,#0x2
        LCALL   ?XSTACK_DISP0_8
        LCALL   ?PUSH_XSTACK8_X_TWO
          CFI CFA_XSP16 add(XSP16, 2)
        MOV     A,#0x2
        LCALL   ?XSTACK_DISP0_8
        LCALL   ?PUSH_XSTACK8_X_TWO
          CFI CFA_XSP16 add(XSP16, 4)
        LCALL   `??zb_ReceiveDataIndication::?relay`; Banked call to: zb_ReceiveDataIndication
        MOV     A,#0x4
        LCALL   ?DEALLOC_XSTACK8
          CFI CFA_XSP16 XSP16+0
//  713 #endif
//  714   }
//  715 }
        POP     DPH
          CFI DPH0 SameValue
          CFI CFA_SP SP+-4
        POP     DPL
          CFI DPL0 SameValue
          CFI CFA_SP SP+-3
        LJMP    ?BRET
          CFI EndBlock cfiBlock15
//  716 
//  717 /*********************************************************************
//  718 * Custom User Events, created by KAS ( 22-2017);
//  719 */

        RSEG BANKED_CODE:CODE:NOROOT(0)
//  720 UINT16 USER_event_loop( byte task_id, UINT16 events )
USER_event_loop:
          CFI Block cfiBlock16 Using cfiCommon0
          CFI Function USER_event_loop
        CODE
//  721 {
        FUNCALL USER_event_loop, zb_HandleOsalEvent
        LOCFRAME ISTACK, 0, STACK
        LOCFRAME PSTACK, 0, STACK
        LOCFRAME XSTACK, 9, STACK
        LOCFRAME IOVERLAY, 0, STATIC
        LOCFRAME DOVERLAY, 0, STATIC
        ARGFRAME ISTACK, 0, STACK
        ARGFRAME PSTACK, 0, STACK
        ARGFRAME XSTACK, 9, STACK
        ARGFRAME IOVERLAY, 0, STATIC
        ARGFRAME DOVERLAY, 0, STATIC
        FUNCALL USER_event_loop, zb_HandleOsalEvent
        LOCFRAME ISTACK, 0, STACK
        LOCFRAME PSTACK, 0, STACK
        LOCFRAME XSTACK, 9, STACK
        LOCFRAME IOVERLAY, 0, STATIC
        LOCFRAME DOVERLAY, 0, STATIC
        ARGFRAME ISTACK, 0, STACK
        ARGFRAME PSTACK, 0, STACK
        ARGFRAME XSTACK, 9, STACK
        ARGFRAME IOVERLAY, 0, STATIC
        ARGFRAME DOVERLAY, 0, STATIC
        MOV     A,#-0x9
        LCALL   ?BANKED_ENTER_XDATA
          CFI DPH0 load(1, XDATA, add(CFA_XSP16, literal(-1)))
          CFI DPL0 load(1, XDATA, add(CFA_XSP16, literal(-2)))
          CFI ?BRET_EXT load(1, XDATA, add(CFA_XSP16, literal(-3)))
          CFI ?RET_HIGH load(1, XDATA, add(CFA_XSP16, literal(-4)))
          CFI ?RET_LOW load(1, XDATA, add(CFA_XSP16, literal(-5)))
          CFI R7 load(1, XDATA, add(CFA_XSP16, literal(-6)))
          CFI V0 load(1, XDATA, add(CFA_XSP16, literal(-7)))
          CFI VB load(1, XDATA, add(CFA_XSP16, literal(-8)))
          CFI R6 load(1, XDATA, add(CFA_XSP16, literal(-9)))
          CFI CFA_SP SP+0
          CFI CFA_XSP16 add(XSP16, 9)
        ; Saved register size: 9
        ; Auto size: 0
        MOV     A,R2
        MOV     R6,A
        MOV     A,R3
        MOV     R7,A
//  722   int doorValue = MCU_IO_GET(0,4);
        MOV     A,0x80
        MOV     R0,A
        MOV     R1,#0x0
        MOV     A,R0
        ANL     A,#0x10
        MOV     R0,A
        MOV     A,R1
        ANL     A,#0x0
        MOV     R1,A
//  723   static bool doorIsClosed;
//  724   if(doorValue == 0 && !doorIsClosed){
        MOV     A,R0
        ORL     A,R1
        JNZ     ??USER_event_loop_0
        MOV     DPTR,#??doorIsClosed
        MOVX    A,@DPTR
        JNZ     ??USER_event_loop_0
//  725     doorIsClosed = true;
        MOV     DPTR,#??doorIsClosed
        MOV     A,#0x1
        MOVX    @DPTR,A
//  726     zb_HandleOsalEvent( DOOR_CLOSED_EVENT );
        ; Setup parameters for call to function zb_HandleOsalEvent
        MOV     R2,#0x0
        MOV     R3,#0x50
        LCALL   `??zb_HandleOsalEvent::?relay`; Banked call to: zb_HandleOsalEvent
//  727     return (events ^ DOOR_CLOSED_EVENT);
        MOV     A,R6
        XRL     A,#0x0
        MOV     R2,A
        MOV     A,R7
        XRL     A,#0x50
        MOV     R3,A
        SJMP    ??USER_event_loop_1
//  728   }
//  729   else{
//  730     doorIsClosed = false;
??USER_event_loop_0:
        MOV     DPTR,#??doorIsClosed
        MOV     A,#0x0
        MOVX    @DPTR,A
//  731     zb_HandleOsalEvent( DOOR_OPEN_EVENT );
        ; Setup parameters for call to function zb_HandleOsalEvent
        MOV     R2,#0x0
        MOV     R3,#0x60
        LCALL   `??zb_HandleOsalEvent::?relay`; Banked call to: zb_HandleOsalEvent
//  732     return (events ^ DOOR_OPEN_EVENT);
        MOV     A,R6
        XRL     A,#0x0
        MOV     R2,A
        MOV     A,R7
        XRL     A,#0x60
        MOV     R3,A
??USER_event_loop_1:
        MOV     R7,#0x1
        LJMP    ?BANKED_LEAVE_XDATA
          CFI R6 SameValue
          CFI VB SameValue
          CFI V0 SameValue
          CFI R7 SameValue
          CFI ?RET_LOW Frame(CFA_SP, 1)
          CFI ?RET_HIGH Frame(CFA_SP, 2)
          CFI ?BRET_EXT Frame(CFA_SP, 3)
          CFI DPL0 SameValue
          CFI DPH0 SameValue
          CFI CFA_SP SP+-3
          CFI CFA_XSP16 XSP16+0
          CFI EndBlock cfiBlock16
        REQUIRE _A_P0
//  733   }
//  734  
//  735 }

        RSEG XDATA_Z:XDATA:NOROOT(0)
        DATA8
??doorIsClosed:
        DS 1
        REQUIRE __INIT_XDATA_Z
//  736 
//  737 /*********************************************************************
//  738  * @fn      SAPI_ProcessEvent
//  739  *
//  740  * @brief   Simple API Task event processor.  This function
//  741  *          is called to process all events for the task.  Events
//  742  *          include timers, messages and any other user defined events.
//  743  *
//  744  * @param   task_id  - The OSAL assigned task ID.
//  745  * @param   events - events to process.  This is a bit map and can
//  746  *                   contain more than one event.
//  747  *
//  748  * @return  none
//  749  */

        RSEG BANKED_CODE:CODE:NOROOT(0)
//  750 UINT16 SAPI_ProcessEvent( byte task_id, UINT16 events )
SAPI_ProcessEvent:
          CFI Block cfiBlock17 Using cfiCommon0
          CFI Function SAPI_ProcessEvent
        CODE
//  751 {
        FUNCALL SAPI_ProcessEvent, osal_msg_receive
        LOCFRAME ISTACK, 0, STACK
        LOCFRAME PSTACK, 0, STACK
        LOCFRAME XSTACK, 15, STACK
        LOCFRAME IOVERLAY, 0, STATIC
        LOCFRAME DOVERLAY, 0, STATIC
        ARGFRAME ISTACK, 0, STACK
        ARGFRAME PSTACK, 0, STACK
        ARGFRAME XSTACK, 15, STACK
        ARGFRAME IOVERLAY, 0, STATIC
        ARGFRAME DOVERLAY, 0, STATIC
        FUNCALL SAPI_ProcessEvent, osal_msg_deallocate
        LOCFRAME ISTACK, 0, STACK
        LOCFRAME PSTACK, 0, STACK
        LOCFRAME XSTACK, 15, STACK
        LOCFRAME IOVERLAY, 0, STATIC
        LOCFRAME DOVERLAY, 0, STATIC
        ARGFRAME ISTACK, 0, STACK
        ARGFRAME PSTACK, 0, STACK
        ARGFRAME XSTACK, 15, STACK
        ARGFRAME IOVERLAY, 0, STATIC
        ARGFRAME DOVERLAY, 0, STATIC
        FUNCALL SAPI_ProcessEvent, osal_msg_receive
        LOCFRAME ISTACK, 0, STACK
        LOCFRAME PSTACK, 0, STACK
        LOCFRAME XSTACK, 15, STACK
        LOCFRAME IOVERLAY, 0, STATIC
        LOCFRAME DOVERLAY, 0, STATIC
        ARGFRAME ISTACK, 0, STACK
        ARGFRAME PSTACK, 0, STACK
        ARGFRAME XSTACK, 15, STACK
        ARGFRAME IOVERLAY, 0, STATIC
        ARGFRAME DOVERLAY, 0, STATIC
        FUNCALL SAPI_ProcessEvent, SAPI_ProcessZDOMsgs
        LOCFRAME ISTACK, 0, STACK
        LOCFRAME PSTACK, 0, STACK
        LOCFRAME XSTACK, 15, STACK
        LOCFRAME IOVERLAY, 0, STATIC
        LOCFRAME DOVERLAY, 0, STATIC
        ARGFRAME ISTACK, 0, STACK
        ARGFRAME PSTACK, 0, STACK
        ARGFRAME XSTACK, 15, STACK
        ARGFRAME IOVERLAY, 0, STATIC
        ARGFRAME DOVERLAY, 0, STATIC
        FUNCALL SAPI_ProcessEvent, SAPI_SendDataConfirm
        LOCFRAME ISTACK, 0, STACK
        LOCFRAME PSTACK, 0, STACK
        LOCFRAME XSTACK, 15, STACK
        LOCFRAME IOVERLAY, 0, STATIC
        LOCFRAME DOVERLAY, 0, STATIC
        ARGFRAME ISTACK, 0, STACK
        ARGFRAME PSTACK, 0, STACK
        ARGFRAME XSTACK, 15, STACK
        ARGFRAME IOVERLAY, 0, STATIC
        ARGFRAME DOVERLAY, 0, STATIC
        FUNCALL SAPI_ProcessEvent, SAPI_ReceiveDataIndication
        LOCFRAME ISTACK, 0, STACK
        LOCFRAME PSTACK, 0, STACK
        LOCFRAME XSTACK, 19, STACK
        LOCFRAME IOVERLAY, 0, STATIC
        LOCFRAME DOVERLAY, 0, STATIC
        ARGFRAME ISTACK, 0, STACK
        ARGFRAME PSTACK, 0, STACK
        ARGFRAME XSTACK, 19, STACK
        ARGFRAME IOVERLAY, 0, STATIC
        ARGFRAME DOVERLAY, 0, STATIC
        FUNCALL SAPI_ProcessEvent, SAPI_StartConfirm
        LOCFRAME ISTACK, 0, STACK
        LOCFRAME PSTACK, 0, STACK
        LOCFRAME XSTACK, 15, STACK
        LOCFRAME IOVERLAY, 0, STATIC
        LOCFRAME DOVERLAY, 0, STATIC
        ARGFRAME ISTACK, 0, STACK
        ARGFRAME PSTACK, 0, STACK
        ARGFRAME XSTACK, 15, STACK
        ARGFRAME IOVERLAY, 0, STATIC
        ARGFRAME DOVERLAY, 0, STATIC
        FUNCALL SAPI_ProcessEvent, SAPI_StartConfirm
        LOCFRAME ISTACK, 0, STACK
        LOCFRAME PSTACK, 0, STACK
        LOCFRAME XSTACK, 15, STACK
        LOCFRAME IOVERLAY, 0, STATIC
        LOCFRAME DOVERLAY, 0, STATIC
        ARGFRAME ISTACK, 0, STACK
        ARGFRAME PSTACK, 0, STACK
        ARGFRAME XSTACK, 15, STACK
        ARGFRAME IOVERLAY, 0, STATIC
        ARGFRAME DOVERLAY, 0, STATIC
        FUNCALL SAPI_ProcessEvent, SAPI_AllowBindConfirm
        LOCFRAME ISTACK, 0, STACK
        LOCFRAME PSTACK, 0, STACK
        LOCFRAME XSTACK, 15, STACK
        LOCFRAME IOVERLAY, 0, STATIC
        LOCFRAME DOVERLAY, 0, STATIC
        ARGFRAME ISTACK, 0, STACK
        ARGFRAME PSTACK, 0, STACK
        ARGFRAME XSTACK, 15, STACK
        ARGFRAME IOVERLAY, 0, STATIC
        ARGFRAME DOVERLAY, 0, STATIC
        FUNCALL SAPI_ProcessEvent, zb_HandleKeys
        LOCFRAME ISTACK, 0, STACK
        LOCFRAME PSTACK, 0, STACK
        LOCFRAME XSTACK, 15, STACK
        LOCFRAME IOVERLAY, 0, STATIC
        LOCFRAME DOVERLAY, 0, STATIC
        ARGFRAME ISTACK, 0, STACK
        ARGFRAME PSTACK, 0, STACK
        ARGFRAME XSTACK, 15, STACK
        ARGFRAME IOVERLAY, 0, STATIC
        ARGFRAME DOVERLAY, 0, STATIC
        FUNCALL SAPI_ProcessEvent, SAPI_SendDataConfirm
        LOCFRAME ISTACK, 0, STACK
        LOCFRAME PSTACK, 0, STACK
        LOCFRAME XSTACK, 15, STACK
        LOCFRAME IOVERLAY, 0, STATIC
        LOCFRAME DOVERLAY, 0, STATIC
        ARGFRAME ISTACK, 0, STACK
        ARGFRAME PSTACK, 0, STACK
        ARGFRAME XSTACK, 15, STACK
        ARGFRAME IOVERLAY, 0, STATIC
        ARGFRAME DOVERLAY, 0, STATIC
        FUNCALL SAPI_ProcessEvent, SAPI_BindConfirm
        LOCFRAME ISTACK, 0, STACK
        LOCFRAME PSTACK, 0, STACK
        LOCFRAME XSTACK, 15, STACK
        LOCFRAME IOVERLAY, 0, STATIC
        LOCFRAME DOVERLAY, 0, STATIC
        ARGFRAME ISTACK, 0, STACK
        ARGFRAME PSTACK, 0, STACK
        ARGFRAME XSTACK, 15, STACK
        ARGFRAME IOVERLAY, 0, STATIC
        ARGFRAME DOVERLAY, 0, STATIC
        FUNCALL SAPI_ProcessEvent, SAPI_StartConfirm
        LOCFRAME ISTACK, 0, STACK
        LOCFRAME PSTACK, 0, STACK
        LOCFRAME XSTACK, 15, STACK
        LOCFRAME IOVERLAY, 0, STATIC
        LOCFRAME DOVERLAY, 0, STATIC
        ARGFRAME ISTACK, 0, STACK
        ARGFRAME PSTACK, 0, STACK
        ARGFRAME XSTACK, 15, STACK
        ARGFRAME IOVERLAY, 0, STATIC
        ARGFRAME DOVERLAY, 0, STATIC
        FUNCALL SAPI_ProcessEvent, afSetMatch
        LOCFRAME ISTACK, 0, STACK
        LOCFRAME PSTACK, 0, STACK
        LOCFRAME XSTACK, 15, STACK
        LOCFRAME IOVERLAY, 0, STATIC
        LOCFRAME DOVERLAY, 0, STATIC
        ARGFRAME ISTACK, 0, STACK
        ARGFRAME PSTACK, 0, STACK
        ARGFRAME XSTACK, 15, STACK
        ARGFRAME IOVERLAY, 0, STATIC
        ARGFRAME DOVERLAY, 0, STATIC
        FUNCALL SAPI_ProcessEvent, SAPI_BindConfirm
        LOCFRAME ISTACK, 0, STACK
        LOCFRAME PSTACK, 0, STACK
        LOCFRAME XSTACK, 15, STACK
        LOCFRAME IOVERLAY, 0, STATIC
        LOCFRAME DOVERLAY, 0, STATIC
        ARGFRAME ISTACK, 0, STACK
        ARGFRAME PSTACK, 0, STACK
        ARGFRAME XSTACK, 15, STACK
        ARGFRAME IOVERLAY, 0, STATIC
        ARGFRAME DOVERLAY, 0, STATIC
        FUNCALL SAPI_ProcessEvent, zb_HandleOsalEvent
        LOCFRAME ISTACK, 0, STACK
        LOCFRAME PSTACK, 0, STACK
        LOCFRAME XSTACK, 15, STACK
        LOCFRAME IOVERLAY, 0, STATIC
        LOCFRAME DOVERLAY, 0, STATIC
        ARGFRAME ISTACK, 0, STACK
        ARGFRAME PSTACK, 0, STACK
        ARGFRAME XSTACK, 15, STACK
        ARGFRAME IOVERLAY, 0, STATIC
        ARGFRAME DOVERLAY, 0, STATIC
        FUNCALL SAPI_ProcessEvent, HalLedSet
        LOCFRAME ISTACK, 0, STACK
        LOCFRAME PSTACK, 0, STACK
        LOCFRAME XSTACK, 15, STACK
        LOCFRAME IOVERLAY, 0, STATIC
        LOCFRAME DOVERLAY, 0, STATIC
        ARGFRAME ISTACK, 0, STACK
        ARGFRAME PSTACK, 0, STACK
        ARGFRAME XSTACK, 15, STACK
        ARGFRAME IOVERLAY, 0, STATIC
        ARGFRAME DOVERLAY, 0, STATIC
        FUNCALL SAPI_ProcessEvent, zb_ReadConfiguration
        LOCFRAME ISTACK, 0, STACK
        LOCFRAME PSTACK, 0, STACK
        LOCFRAME XSTACK, 15, STACK
        LOCFRAME IOVERLAY, 0, STATIC
        LOCFRAME DOVERLAY, 0, STATIC
        ARGFRAME ISTACK, 0, STACK
        ARGFRAME PSTACK, 0, STACK
        ARGFRAME XSTACK, 15, STACK
        ARGFRAME IOVERLAY, 0, STATIC
        ARGFRAME DOVERLAY, 0, STATIC
        FUNCALL SAPI_ProcessEvent, zb_StartRequest
        LOCFRAME ISTACK, 0, STACK
        LOCFRAME PSTACK, 0, STACK
        LOCFRAME XSTACK, 15, STACK
        LOCFRAME IOVERLAY, 0, STATIC
        LOCFRAME DOVERLAY, 0, STATIC
        ARGFRAME ISTACK, 0, STACK
        ARGFRAME PSTACK, 0, STACK
        ARGFRAME XSTACK, 15, STACK
        ARGFRAME IOVERLAY, 0, STATIC
        ARGFRAME DOVERLAY, 0, STATIC
        FUNCALL SAPI_ProcessEvent, HalLedBlink
        LOCFRAME ISTACK, 0, STACK
        LOCFRAME PSTACK, 0, STACK
        LOCFRAME XSTACK, 15, STACK
        LOCFRAME IOVERLAY, 0, STATIC
        LOCFRAME DOVERLAY, 0, STATIC
        ARGFRAME ISTACK, 0, STACK
        ARGFRAME PSTACK, 0, STACK
        ARGFRAME XSTACK, 15, STACK
        ARGFRAME IOVERLAY, 0, STATIC
        ARGFRAME DOVERLAY, 0, STATIC
        FUNCALL SAPI_ProcessEvent, zb_HandleOsalEvent
        LOCFRAME ISTACK, 0, STACK
        LOCFRAME PSTACK, 0, STACK
        LOCFRAME XSTACK, 15, STACK
        LOCFRAME IOVERLAY, 0, STATIC
        LOCFRAME DOVERLAY, 0, STATIC
        ARGFRAME ISTACK, 0, STACK
        ARGFRAME PSTACK, 0, STACK
        ARGFRAME XSTACK, 15, STACK
        ARGFRAME IOVERLAY, 0, STATIC
        ARGFRAME DOVERLAY, 0, STATIC
        REQUIRE ?V0
        REQUIRE ?V1
        REQUIRE ?V2
        REQUIRE ?V4
        REQUIRE ?V5
        MOV     A,#-0xe
        LCALL   ?BANKED_ENTER_XDATA
          CFI DPH0 load(1, XDATA, add(CFA_XSP16, literal(-1)))
          CFI DPL0 load(1, XDATA, add(CFA_XSP16, literal(-2)))
          CFI ?BRET_EXT load(1, XDATA, add(CFA_XSP16, literal(-3)))
          CFI ?RET_HIGH load(1, XDATA, add(CFA_XSP16, literal(-4)))
          CFI ?RET_LOW load(1, XDATA, add(CFA_XSP16, literal(-5)))
          CFI R7 load(1, XDATA, add(CFA_XSP16, literal(-6)))
          CFI V5 load(1, XDATA, add(CFA_XSP16, literal(-7)))
          CFI V4 load(1, XDATA, add(CFA_XSP16, literal(-8)))
          CFI V3 load(1, XDATA, add(CFA_XSP16, literal(-9)))
          CFI V2 load(1, XDATA, add(CFA_XSP16, literal(-10)))
          CFI V1 load(1, XDATA, add(CFA_XSP16, literal(-11)))
          CFI V0 load(1, XDATA, add(CFA_XSP16, literal(-12)))
          CFI VB load(1, XDATA, add(CFA_XSP16, literal(-13)))
          CFI R6 load(1, XDATA, add(CFA_XSP16, literal(-14)))
          CFI CFA_SP SP+0
          CFI CFA_XSP16 add(XSP16, 14)
        ; Saved register size: 14
        ; Auto size: 1
        MOV     A,#-0x1
        LCALL   ?ALLOC_XSTACK8
          CFI CFA_XSP16 add(XSP16, 15)
        MOV     ?V2,R1
        MOV     A,R2
        MOV     R6,A
        MOV     A,R3
        MOV     R7,A
//  752   osal_event_hdr_t *pMsg;
//  753   afIncomingMSGPacket_t *pMSGpkt;
//  754   afDataConfirm_t *pDataConfirm;
//  755 
//  756   if ( events & SYS_EVENT_MSG )
        MOV     A,R6
        ANL     A,#0x0
        MOV     R0,A
        MOV     A,R7
        ANL     A,#0x80
        MOV     R1,A
        MOV     A,R0
        ORL     A,R1
        JNZ     $+5
        LJMP    ??SAPI_ProcessEvent_0 & 0xFFFF
//  757   {
//  758     pMsg = (osal_event_hdr_t *) osal_msg_receive( task_id );
        ; Setup parameters for call to function osal_msg_receive
        MOV     R1,?V2
        LCALL   `??osal_msg_receive::?relay`; Banked call to: osal_msg_receive
        MOV     ?V4,R2
        MOV     ?V5,R3
        MOV     ?V0,?V4
        MOV     ?V1,?V5
        SJMP    ??SAPI_ProcessEvent_1
//  759     while ( pMsg )
//  760     {
//  761       switch ( pMsg->event )
//  762       {
//  763         case ZDO_CB_MSG:
//  764           SAPI_ProcessZDOMsgs( (zdoIncomingMsg_t *)pMsg );
//  765           break;
//  766 
//  767         case AF_DATA_CONFIRM_CMD:
//  768           // This message is received as a confirmation of a data packet sent.
//  769           // The status is of ZStatus_t type [defined in ZComDef.h]
//  770           // The message fields are defined in AF.h
//  771           pDataConfirm = (afDataConfirm_t *) pMsg;
//  772           SAPI_SendDataConfirm( pDataConfirm->transID, pDataConfirm->hdr.status );
//  773           break;
//  774 
//  775         case AF_INCOMING_MSG_CMD:
//  776           pMSGpkt = (afIncomingMSGPacket_t *) pMsg;
//  777           SAPI_ReceiveDataIndication( pMSGpkt->srcAddr.addr.shortAddr, pMSGpkt->clusterId,
//  778                                       pMSGpkt->cmd.DataLength, pMSGpkt->cmd.Data);
//  779           break;
//  780 
//  781         case ZDO_STATE_CHANGE:
//  782           // If the device has started up, notify the application
//  783           if (pMsg->status == DEV_END_DEVICE ||
//  784               pMsg->status == DEV_ROUTER ||
//  785               pMsg->status == DEV_ZB_COORD )
//  786           {
//  787             SAPI_StartConfirm( ZB_SUCCESS );
//  788           }
//  789           else if (pMsg->status == DEV_HOLD ||
//  790                    pMsg->status == DEV_INIT)
//  791           {
//  792             SAPI_StartConfirm( ZB_INIT );
//  793           }
//  794           break;
//  795 
//  796         case ZDO_MATCH_DESC_RSP_SENT:
//  797           SAPI_AllowBindConfirm( ((ZDO_MatchDescRspSent_t *)pMsg)->nwkAddr );
//  798           break;
//  799 
//  800         case KEY_CHANGE:
//  801 #if ( SAPI_CB_FUNC )
//  802           zb_HandleKeys( ((keyChange_t *)pMsg)->state, ((keyChange_t *)pMsg)->keys );
//  803 #endif
//  804           break;
//  805 
//  806         case SAPICB_DATA_CNF:
//  807           SAPI_SendDataConfirm( (uint8)((sapi_CbackEvent_t *)pMsg)->data,
//  808                                        ((sapi_CbackEvent_t *)pMsg)->hdr.status );
//  809           break;
//  810 
//  811         case SAPICB_BIND_CNF:
//  812           SAPI_BindConfirm( ((sapi_CbackEvent_t *)pMsg)->data,
//  813                             ((sapi_CbackEvent_t *)pMsg)->hdr.status );
//  814           break;
//  815 
//  816         case SAPICB_START_CNF:
//  817           SAPI_StartConfirm( ((sapi_CbackEvent_t *)pMsg)->hdr.status );
//  818           break;
//  819 
//  820         default:
//  821           // User messages should be handled by user or passed to the application
//  822           if ( pMsg->event >= ZB_USER_MSG )
//  823           {
//  824 
//  825           }
//  826           break;
//  827       }
//  828 
//  829       // Release the memory
//  830       osal_msg_deallocate( (uint8 *) pMsg );
??SAPI_ProcessEvent_2:
        ; Setup parameters for call to function osal_msg_deallocate
        MOV     R2,?V0
        MOV     R3,?V1
        LCALL   `??osal_msg_deallocate::?relay`; Banked call to: osal_msg_deallocate
        MOV     A,R1
//  831 
//  832       // Next
//  833       pMsg = (osal_event_hdr_t *) osal_msg_receive( task_id );
        ; Setup parameters for call to function osal_msg_receive
        MOV     R1,?V2
        LCALL   `??osal_msg_receive::?relay`; Banked call to: osal_msg_receive
        MOV     ?V4,R2
        MOV     ?V5,R3
        MOV     ?V0,?V4
        MOV     ?V1,?V5
??SAPI_ProcessEvent_1:
        MOV     A,?V0
        ORL     A,?V1
        JNZ     $+5
        LJMP    ??SAPI_ProcessEvent_3 & 0xFFFF
        MOV     DPL,?V0
        MOV     DPH,?V1
        MOVX    A,@DPTR
        ADD     A,#-0x1a
        JZ      ??SAPI_ProcessEvent_4
        ADD     A,#0x5a
        JNZ     $+5
        LJMP    ??SAPI_ProcessEvent_5 & 0xFFFF
        ADD     A,#-0x11
        JNZ     $+5
        LJMP    ??SAPI_ProcessEvent_6 & 0xFFFF
        DEC     A
        JNZ     $+5
        LJMP    ??SAPI_ProcessEvent_7 & 0xFFFF
        DEC     A
        JZ      ??SAPI_ProcessEvent_8
        ADD     A,#-0xd
        JNZ     $+5
        LJMP    ??SAPI_ProcessEvent_9 & 0xFFFF
        DEC     A
        JNZ     $+5
        LJMP    ??SAPI_ProcessEvent_10 & 0xFFFF
        DEC     A
        JNZ     $+5
        LJMP    ??SAPI_ProcessEvent_11 & 0xFFFF
        ADD     A,#-0x1b
        JZ      ??SAPI_ProcessEvent_12
        SJMP    ??SAPI_ProcessEvent_2
??SAPI_ProcessEvent_8:
        ; Setup parameters for call to function SAPI_ProcessZDOMsgs
        MOV     R2,?V0
        MOV     R3,?V1
        LCALL   `??SAPI_ProcessZDOMsgs::?relay`; Banked call to: SAPI_ProcessZDOMsgs
        SJMP    ??SAPI_ProcessEvent_2
??SAPI_ProcessEvent_12:
        MOV     R0,?V0
        MOV     R1,?V1
        ; Setup parameters for call to function SAPI_SendDataConfirm
        MOV     DPL,R0
        MOV     DPH,R1
        INC     DPTR
        MOVX    A,@DPTR
        MOV     R2,A
        MOV     DPL,R0
        MOV     DPH,R1
        INC     DPTR
        INC     DPTR
        INC     DPTR
        MOVX    A,@DPTR
        MOV     R1,A
        LCALL   `??SAPI_SendDataConfirm::?relay`; Banked call to: SAPI_SendDataConfirm
        SJMP    ??SAPI_ProcessEvent_2
??SAPI_ProcessEvent_4:
        MOV     R0,?V0
        MOV     R1,?V1
        ; Setup parameters for call to function SAPI_ReceiveDataIndication
        MOV     A,R0
        ADD     A,#0x22
        MOV     DPL,A
        CLR     A
        ADDC    A,R1
        MOV     DPH,A
        LCALL   ?PUSH_XSTACK8_X_TWO
          CFI CFA_XSP16 add(XSP16, 17)
        MOV     A,R0
        ADD     A,#0x20
        MOV     DPL,A
        CLR     A
        ADDC    A,R1
        MOV     DPH,A
        LCALL   ?PUSH_XSTACK8_X_TWO
          CFI CFA_XSP16 add(XSP16, 19)
        MOV     DPL,R0
        MOV     DPH,R1
        INC     DPTR
        INC     DPTR
        INC     DPTR
        INC     DPTR
        MOVX    A,@DPTR
        MOV     R4,A
        INC     DPTR
        MOVX    A,@DPTR
        MOV     R5,A
        MOV     DPL,R0
        MOV     DPH,R1
        INC     DPTR
        INC     DPTR
        INC     DPTR
        INC     DPTR
        INC     DPTR
        INC     DPTR
        MOVX    A,@DPTR
        MOV     R2,A
        INC     DPTR
        MOVX    A,@DPTR
        MOV     R3,A
        LCALL   `??SAPI_ReceiveDataIndication::?relay`; Banked call to: SAPI_ReceiveDataIndication
        MOV     A,#0x4
        LCALL   ?DEALLOC_XSTACK8
          CFI CFA_XSP16 add(XSP16, 15)
        LJMP    ??SAPI_ProcessEvent_2 & 0xFFFF
??SAPI_ProcessEvent_6:
        MOV     DPL,?V0
        MOV     DPH,?V1
        INC     DPTR
        MOVX    A,@DPTR
        XRL     A,#0x6
        JZ      ??SAPI_ProcessEvent_13
        MOV     DPL,?V0
        MOV     DPH,?V1
        INC     DPTR
        MOVX    A,@DPTR
        XRL     A,#0x7
        JZ      ??SAPI_ProcessEvent_13
        MOV     DPL,?V0
        MOV     DPH,?V1
        INC     DPTR
        MOVX    A,@DPTR
        XRL     A,#0x9
        JNZ     ??SAPI_ProcessEvent_14
??SAPI_ProcessEvent_13:
        ; Setup parameters for call to function SAPI_StartConfirm
        MOV     R1,#0x0
        LCALL   `??SAPI_StartConfirm::?relay`; Banked call to: SAPI_StartConfirm
        SJMP    ??SAPI_ProcessEvent_15
??SAPI_ProcessEvent_14:
        MOV     DPL,?V0
        MOV     DPH,?V1
        INC     DPTR
        MOVX    A,@DPTR
        JZ      ??SAPI_ProcessEvent_16
        MOV     DPL,?V0
        MOV     DPH,?V1
        INC     DPTR
        MOVX    A,@DPTR
        XRL     A,#0x1
        JNZ     ??SAPI_ProcessEvent_15
??SAPI_ProcessEvent_16:
        ; Setup parameters for call to function SAPI_StartConfirm
        MOV     R1,#0x22
        LCALL   `??SAPI_StartConfirm::?relay`; Banked call to: SAPI_StartConfirm
??SAPI_ProcessEvent_15:
        LJMP    ??SAPI_ProcessEvent_2 & 0xFFFF
??SAPI_ProcessEvent_7:
        ; Setup parameters for call to function SAPI_AllowBindConfirm
        MOV     DPL,?V0
        MOV     DPH,?V1
        INC     DPTR
        INC     DPTR
        MOVX    A,@DPTR
        MOV     R2,A
        INC     DPTR
        MOVX    A,@DPTR
        MOV     R3,A
        LCALL   `??SAPI_AllowBindConfirm::?relay`; Banked call to: SAPI_AllowBindConfirm
        LJMP    ??SAPI_ProcessEvent_2 & 0xFFFF
??SAPI_ProcessEvent_5:
        ; Setup parameters for call to function zb_HandleKeys
        MOV     DPL,?V0
        MOV     DPH,?V1
        INC     DPTR
        INC     DPTR
        INC     DPTR
        MOVX    A,@DPTR
        MOV     R2,A
        MOV     DPL,?V0
        MOV     DPH,?V1
        INC     DPTR
        INC     DPTR
        MOVX    A,@DPTR
        MOV     R1,A
        LCALL   `??zb_HandleKeys::?relay`; Banked call to: zb_HandleKeys
        LJMP    ??SAPI_ProcessEvent_2 & 0xFFFF
??SAPI_ProcessEvent_9:
        ; Setup parameters for call to function SAPI_SendDataConfirm
        MOV     DPL,?V0
        MOV     DPH,?V1
        INC     DPTR
        MOVX    A,@DPTR
        MOV     R2,A
        MOV     DPL,?V0
        MOV     DPH,?V1
        INC     DPTR
        INC     DPTR
        MOVX    A,@DPTR
        MOV     R0,A
        INC     DPTR
        MOVX    A,@DPTR
        MOV     R1,A
        MOV     A,R0
        MOV     R1,A
        LCALL   `??SAPI_SendDataConfirm::?relay`; Banked call to: SAPI_SendDataConfirm
        LJMP    ??SAPI_ProcessEvent_2 & 0xFFFF
??SAPI_ProcessEvent_10:
        ; Setup parameters for call to function SAPI_BindConfirm
        MOV     DPL,?V0
        MOV     DPH,?V1
        INC     DPTR
        MOVX    A,@DPTR
        MOV     R1,A
        MOV     DPL,?V0
        MOV     DPH,?V1
        INC     DPTR
        INC     DPTR
        MOVX    A,@DPTR
        MOV     R2,A
        INC     DPTR
        MOVX    A,@DPTR
        MOV     R3,A
        LCALL   `??SAPI_BindConfirm::?relay`; Banked call to: SAPI_BindConfirm
        LJMP    ??SAPI_ProcessEvent_2 & 0xFFFF
??SAPI_ProcessEvent_11:
        ; Setup parameters for call to function SAPI_StartConfirm
        MOV     DPL,?V0
        MOV     DPH,?V1
        INC     DPTR
        MOVX    A,@DPTR
        MOV     R1,A
        LCALL   `??SAPI_StartConfirm::?relay`; Banked call to: SAPI_StartConfirm
        LJMP    ??SAPI_ProcessEvent_2 & 0xFFFF
//  834     }
//  835 
//  836     // Return unprocessed events
//  837     return (events ^ SYS_EVENT_MSG);
??SAPI_ProcessEvent_3:
        MOV     A,R6
        XRL     A,#0x0
        MOV     R2,A
        MOV     A,R7
        XRL     A,#0x80
        MOV     R3,A
        LJMP    ??SAPI_ProcessEvent_17 & 0xFFFF
//  838   }
//  839 
//  840   if ( events & ZB_ALLOW_BIND_TIMER )
??SAPI_ProcessEvent_0:
        MOV     A,R6
        ANL     A,#0x0
        MOV     R0,A
        MOV     A,R7
        ANL     A,#0x40
        MOV     R1,A
        MOV     A,R0
        ORL     A,R1
        JZ      ??SAPI_ProcessEvent_18
//  841   {
//  842     afSetMatch(sapi_epDesc.simpleDesc->EndPoint, FALSE);
        ; Setup parameters for call to function afSetMatch
        MOV     R2,#0x0
        MOV     DPTR,#sapi_epDesc + 3
        MOVX    A,@DPTR
        MOV     R0,A
        INC     DPTR
        MOVX    A,@DPTR
        MOV     DPH,A
        MOV     DPL,R0
        MOVX    A,@DPTR
        MOV     R1,A
        LCALL   `??afSetMatch::?relay`; Banked call to: afSetMatch
        MOV     A,R1
//  843     return (events ^ ZB_ALLOW_BIND_TIMER);
        MOV     A,R6
        XRL     A,#0x0
        MOV     R2,A
        MOV     A,R7
        XRL     A,#0x40
        MOV     R3,A
        LJMP    ??SAPI_ProcessEvent_17 & 0xFFFF
//  844   }
//  845 
//  846   if ( events & ZB_BIND_TIMER )
??SAPI_ProcessEvent_18:
        MOV     A,R6
        ANL     A,#0x0
        MOV     R0,A
        MOV     A,R7
        ANL     A,#0x20
        MOV     R1,A
        MOV     A,R0
        ORL     A,R1
        JZ      ??SAPI_ProcessEvent_19
//  847   {
//  848     // Send bind confirm callback to application
//  849     SAPI_BindConfirm( sapi_bindInProgress, ZB_TIMEOUT );
        ; Setup parameters for call to function SAPI_BindConfirm
        MOV     R1,#0x21
        MOV     DPTR,#sapi_bindInProgress
        MOVX    A,@DPTR
        MOV     R2,A
        INC     DPTR
        MOVX    A,@DPTR
        MOV     R3,A
        LCALL   `??SAPI_BindConfirm::?relay`; Banked call to: SAPI_BindConfirm
//  850     sapi_bindInProgress = 0xffff;
        MOV     DPTR,#sapi_bindInProgress
        MOV     A,#-0x1
        MOVX    @DPTR,A
        INC     DPTR
        MOV     A,#-0x1
        MOVX    @DPTR,A
//  851 
//  852     return (events ^ ZB_BIND_TIMER);
        MOV     A,R6
        XRL     A,#0x0
        MOV     R2,A
        MOV     A,R7
        XRL     A,#0x20
        MOV     R3,A
        SJMP    ??SAPI_ProcessEvent_17
//  853   }
//  854 
//  855   if ( events & ZB_ENTRY_EVENT )
??SAPI_ProcessEvent_19:
        MOV     A,R6
        ANL     A,#0x0
        MOV     R0,A
        MOV     A,R7
        ANL     A,#0x10
        MOV     R1,A
        MOV     A,R0
        ORL     A,R1
        JZ      ??SAPI_ProcessEvent_20
//  856   {
//  857     uint8 startOptions;
//  858 
//  859     // Give indication to application of device startup
//  860 #if ( SAPI_CB_FUNC )
//  861     zb_HandleOsalEvent( ZB_ENTRY_EVENT );
        ; Setup parameters for call to function zb_HandleOsalEvent
        MOV     R2,#0x0
        MOV     R3,#0x10
        LCALL   `??zb_HandleOsalEvent::?relay`; Banked call to: zb_HandleOsalEvent
//  862 #endif
//  863 
//  864     // LED off cancels HOLD_AUTO_START blink set in the stack
//  865     HalLedSet (HAL_LED_4, HAL_LED_MODE_OFF);
        ; Setup parameters for call to function HalLedSet
        MOV     R2,#0x0
        MOV     R1,#0x8
        LCALL   `??HalLedSet::?relay`; Banked call to: HalLedSet
        MOV     A,R1
//  866 
//  867     zb_ReadConfiguration( ZCD_NV_STARTUP_OPTION, sizeof(uint8), &startOptions );
        ; Setup parameters for call to function zb_ReadConfiguration
        MOV     R4,?XSP + 0
        MOV     R5,?XSP + 1
        MOV     R2,#0x1
        MOV     R1,#0x3
        LCALL   `??zb_ReadConfiguration::?relay`; Banked call to: zb_ReadConfiguration
        MOV     A,R1
//  868     if ( startOptions & ZCD_STARTOPT_AUTO_START )
        MOV     DPL,?XSP + 0
        MOV     DPH,?XSP + 1
        MOVX    A,@DPTR
        MOV     C,0xE0 /* A   */.2
        JNC     ??SAPI_ProcessEvent_21
//  869     {
//  870       zb_StartRequest();
        ; Setup parameters for call to function zb_StartRequest
        LCALL   `??zb_StartRequest::?relay`; Banked call to: zb_StartRequest
        SJMP    ??SAPI_ProcessEvent_22
//  871     }
//  872     else
//  873     {
//  874       // blink leds and wait for external input to config and restart
//  875       HalLedBlink(HAL_LED_2, 0, 50, 500);
??SAPI_ProcessEvent_21:
        ; Setup parameters for call to function HalLedBlink
        MOV     R4,#-0xc
        MOV     R5,#0x1
        MOV     R3,#0x32
        MOV     R2,#0x0
        MOV     R1,#0x2
        LCALL   `??HalLedBlink::?relay`; Banked call to: HalLedBlink
//  876     }
//  877 
//  878     return (events ^ ZB_ENTRY_EVENT );
??SAPI_ProcessEvent_22:
        MOV     A,R6
        XRL     A,#0x0
        MOV     R2,A
        MOV     A,R7
        XRL     A,#0x10
        MOV     R3,A
        SJMP    ??SAPI_ProcessEvent_17
//  879   }
//  880 
//  881   // This must be the last event to be processed
//  882   if ( events & ( ZB_USER_EVENTS ) )
??SAPI_ProcessEvent_20:
        MOV     A,R6
        ANL     A,#0xff
        JZ      ??SAPI_ProcessEvent_23
//  883   {
//  884     // User events are passed to the application
//  885 #if ( SAPI_CB_FUNC )
//  886     zb_HandleOsalEvent( events );
        ; Setup parameters for call to function zb_HandleOsalEvent
        MOV     A,R6
        MOV     R2,A
        MOV     A,R7
        MOV     R3,A
        LCALL   `??zb_HandleOsalEvent::?relay`; Banked call to: zb_HandleOsalEvent
//  887 #endif
//  888 
//  889     // Do not return here, return 0 later
//  890   }
//  891 
//  892   // Discard unknown events
//  893   return 0;
??SAPI_ProcessEvent_23:
        MOV     R2,#0x0
        MOV     R3,#0x0
??SAPI_ProcessEvent_17:
        MOV     A,#0x1
        LCALL   ?DEALLOC_XSTACK8
          CFI CFA_XSP16 add(XSP16, 14)
        MOV     R7,#0x6
        LJMP    ?BANKED_LEAVE_XDATA
          CFI R6 SameValue
          CFI VB SameValue
          CFI V0 SameValue
          CFI V1 SameValue
          CFI V2 SameValue
          CFI V3 SameValue
          CFI V4 SameValue
          CFI V5 SameValue
          CFI R7 SameValue
          CFI ?RET_LOW Frame(CFA_SP, 1)
          CFI ?RET_HIGH Frame(CFA_SP, 2)
          CFI ?BRET_EXT Frame(CFA_SP, 3)
          CFI DPL0 SameValue
          CFI DPH0 SameValue
          CFI CFA_SP SP+-3
          CFI CFA_XSP16 XSP16+0
//  894 }
          CFI EndBlock cfiBlock17
//  895 
//  896 /*********************************************************************
//  897  * @fn      SAPI_ProcessZDOMsgs()
//  898  *
//  899  * @brief   Process response messages
//  900  *
//  901  * @param   none
//  902  *
//  903  * @return  none
//  904  */

        RSEG BANKED_CODE:CODE:NOROOT(0)
//  905 void SAPI_ProcessZDOMsgs( zdoIncomingMsg_t *inMsg )
SAPI_ProcessZDOMsgs:
          CFI Block cfiBlock18 Using cfiCommon0
          CFI Function SAPI_ProcessZDOMsgs
        CODE
//  906 {
        FUNCALL SAPI_ProcessZDOMsgs, ZDO_ParseAddrRsp
        LOCFRAME ISTACK, 0, STACK
        LOCFRAME PSTACK, 0, STACK
        LOCFRAME XSTACK, 19, STACK
        LOCFRAME IOVERLAY, 0, STATIC
        LOCFRAME DOVERLAY, 0, STATIC
        ARGFRAME ISTACK, 0, STACK
        ARGFRAME PSTACK, 0, STACK
        ARGFRAME XSTACK, 19, STACK
        ARGFRAME IOVERLAY, 0, STATIC
        ARGFRAME DOVERLAY, 0, STATIC
        FUNCALL SAPI_ProcessZDOMsgs, SAPI_FindDeviceConfirm
        LOCFRAME ISTACK, 0, STACK
        LOCFRAME PSTACK, 0, STACK
        LOCFRAME XSTACK, 19, STACK
        LOCFRAME IOVERLAY, 0, STATIC
        LOCFRAME DOVERLAY, 0, STATIC
        ARGFRAME ISTACK, 0, STACK
        ARGFRAME PSTACK, 0, STACK
        ARGFRAME XSTACK, 19, STACK
        ARGFRAME IOVERLAY, 0, STATIC
        ARGFRAME DOVERLAY, 0, STATIC
        FUNCALL SAPI_ProcessZDOMsgs, ZDO_ParseEPListRsp
        LOCFRAME ISTACK, 0, STACK
        LOCFRAME PSTACK, 0, STACK
        LOCFRAME XSTACK, 19, STACK
        LOCFRAME IOVERLAY, 0, STATIC
        LOCFRAME DOVERLAY, 0, STATIC
        ARGFRAME ISTACK, 0, STACK
        ARGFRAME PSTACK, 0, STACK
        ARGFRAME XSTACK, 19, STACK
        ARGFRAME IOVERLAY, 0, STATIC
        ARGFRAME DOVERLAY, 0, STATIC
        FUNCALL SAPI_ProcessZDOMsgs, APSME_BindRequest
        LOCFRAME ISTACK, 0, STACK
        LOCFRAME PSTACK, 0, STACK
        LOCFRAME XSTACK, 20, STACK
        LOCFRAME IOVERLAY, 0, STATIC
        LOCFRAME DOVERLAY, 0, STATIC
        ARGFRAME ISTACK, 0, STACK
        ARGFRAME PSTACK, 0, STACK
        ARGFRAME XSTACK, 20, STACK
        ARGFRAME IOVERLAY, 0, STATIC
        ARGFRAME DOVERLAY, 0, STATIC
        FUNCALL SAPI_ProcessZDOMsgs, osal_stop_timerEx
        LOCFRAME ISTACK, 0, STACK
        LOCFRAME PSTACK, 0, STACK
        LOCFRAME XSTACK, 19, STACK
        LOCFRAME IOVERLAY, 0, STATIC
        LOCFRAME DOVERLAY, 0, STATIC
        ARGFRAME ISTACK, 0, STACK
        ARGFRAME PSTACK, 0, STACK
        ARGFRAME XSTACK, 19, STACK
        ARGFRAME IOVERLAY, 0, STATIC
        ARGFRAME DOVERLAY, 0, STATIC
        FUNCALL SAPI_ProcessZDOMsgs, osal_start_timerEx
        LOCFRAME ISTACK, 0, STACK
        LOCFRAME PSTACK, 0, STACK
        LOCFRAME XSTACK, 23, STACK
        LOCFRAME IOVERLAY, 0, STATIC
        LOCFRAME DOVERLAY, 0, STATIC
        ARGFRAME ISTACK, 0, STACK
        ARGFRAME PSTACK, 0, STACK
        ARGFRAME XSTACK, 23, STACK
        ARGFRAME IOVERLAY, 0, STATIC
        ARGFRAME DOVERLAY, 0, STATIC
        FUNCALL SAPI_ProcessZDOMsgs, ZDP_IEEEAddrReq
        LOCFRAME ISTACK, 0, STACK
        LOCFRAME PSTACK, 0, STACK
        LOCFRAME XSTACK, 19, STACK
        LOCFRAME IOVERLAY, 0, STATIC
        LOCFRAME DOVERLAY, 0, STATIC
        ARGFRAME ISTACK, 0, STACK
        ARGFRAME PSTACK, 0, STACK
        ARGFRAME XSTACK, 19, STACK
        ARGFRAME IOVERLAY, 0, STATIC
        ARGFRAME DOVERLAY, 0, STATIC
        FUNCALL SAPI_ProcessZDOMsgs, zb_BindConfirm
        LOCFRAME ISTACK, 0, STACK
        LOCFRAME PSTACK, 0, STACK
        LOCFRAME XSTACK, 19, STACK
        LOCFRAME IOVERLAY, 0, STATIC
        LOCFRAME DOVERLAY, 0, STATIC
        ARGFRAME ISTACK, 0, STACK
        ARGFRAME PSTACK, 0, STACK
        ARGFRAME XSTACK, 19, STACK
        ARGFRAME IOVERLAY, 0, STATIC
        ARGFRAME DOVERLAY, 0, STATIC
        REQUIRE ?V0
        REQUIRE ?V1
        MOV     A,#-0xa
        LCALL   ?BANKED_ENTER_XDATA
          CFI DPH0 load(1, XDATA, add(CFA_XSP16, literal(-1)))
          CFI DPL0 load(1, XDATA, add(CFA_XSP16, literal(-2)))
          CFI ?BRET_EXT load(1, XDATA, add(CFA_XSP16, literal(-3)))
          CFI ?RET_HIGH load(1, XDATA, add(CFA_XSP16, literal(-4)))
          CFI ?RET_LOW load(1, XDATA, add(CFA_XSP16, literal(-5)))
          CFI R7 load(1, XDATA, add(CFA_XSP16, literal(-6)))
          CFI V1 load(1, XDATA, add(CFA_XSP16, literal(-7)))
          CFI V0 load(1, XDATA, add(CFA_XSP16, literal(-8)))
          CFI VB load(1, XDATA, add(CFA_XSP16, literal(-9)))
          CFI R6 load(1, XDATA, add(CFA_XSP16, literal(-10)))
          CFI CFA_SP SP+0
          CFI CFA_XSP16 add(XSP16, 10)
        ; Saved register size: 10
        ; Auto size: 9
        MOV     A,#-0x9
        LCALL   ?ALLOC_XSTACK8
          CFI CFA_XSP16 add(XSP16, 19)
//  907   switch ( inMsg->clusterID )
        MOV     A,R2
        ADD     A,#0xc
        MOV     DPL,A
        CLR     A
        ADDC    A,R3
        MOV     DPH,A
        MOVX    A,@DPTR
        MOV     ?V0,A
        INC     DPTR
        MOVX    A,@DPTR
        MOV     ?V1,A
        MOV     R0,#?V0
        LCALL   ?US_SWITCH_SPARSE
`?<Jumptable for SAPI_ProcessZDOMsgs>_0`:
        DATA
        DATA16
        DATA
        DATA16
        DATA
        DATA16
        DW        0
        DATA
        DATA16
        DATA
        DATA16
        DATA
        DATA16
        DW        2
        DATA
        DATA16
        DATA
        DATA16
        DATA
        DATA16
        DW        32768
        DATA
        DATA16
        DATA
        DATA16
        DATA
        DATA16
        DW        ??SAPI_ProcessZDOMsgs_0
        DATA
        DATA16
        DATA
        DATA16
        DATA
        DATA16
        DW        32774
        DATA
        DATA16
        DATA
        DATA16
        DATA
        DATA16
        DW        ??SAPI_ProcessZDOMsgs_1
        DATA
        DATA16
        DATA
        DATA16
        DW        ??SAPI_ProcessZDOMsgs_2
        CODE
//  908   {
//  909     case NWK_addr_rsp:
//  910       {
//  911         // Send find device callback to application
//  912         ZDO_NwkIEEEAddrResp_t *pNwkAddrRsp = ZDO_ParseAddrRsp( inMsg );
??SAPI_ProcessZDOMsgs_0:
        ; Setup parameters for call to function ZDO_ParseAddrRsp
        LCALL   `??ZDO_ParseAddrRsp::?relay`; Banked call to: ZDO_ParseAddrRsp
        MOV     ?V0,R2
        MOV     ?V1,R3
        MOV     DPL,?V0
        MOV     DPH,?V1
//  913         SAPI_FindDeviceConfirm( ZB_IEEE_SEARCH, (uint8*)&pNwkAddrRsp->nwkAddr, pNwkAddrRsp->extAddr );
        ; Setup parameters for call to function SAPI_FindDeviceConfirm
        MOV     A,DPL
        ADD     A,#0x3
        MOV     R4,A
        CLR     A
        ADDC    A,DPH
        MOV     R5,A
        INC     DPTR
        MOV     R2,DPL
        MOV     R3,DPH
        MOV     R1,#0x1
        LCALL   `??SAPI_FindDeviceConfirm::?relay`; Banked call to: SAPI_FindDeviceConfirm
//  914       }
//  915       break;
        LJMP    ??SAPI_ProcessZDOMsgs_2 & 0xFFFF
//  916 
//  917     case Match_Desc_rsp:
//  918       {
//  919         zAddrType_t dstAddr;
//  920         ZDO_ActiveEndpointRsp_t *pRsp = ZDO_ParseEPListRsp( inMsg );
??SAPI_ProcessZDOMsgs_1:
        ; Setup parameters for call to function ZDO_ParseEPListRsp
        LCALL   `??ZDO_ParseEPListRsp::?relay`; Banked call to: ZDO_ParseEPListRsp
        MOV     ?V0,R2
        MOV     ?V1,R3
        MOV     R6,?V0
        MOV     R7,?V1
//  921 
//  922         if ( sapi_bindInProgress != 0xffff )
        MOV     DPTR,#sapi_bindInProgress
        MOVX    A,@DPTR
        XRL     A,#0xff
        JNZ     ??SAPI_ProcessZDOMsgs_3
        INC     DPTR
        MOVX    A,@DPTR
        XRL     A,#0xff
??SAPI_ProcessZDOMsgs_3:
        JNZ     $+5
        LJMP    ??SAPI_ProcessZDOMsgs_2 & 0xFFFF
//  923         {
//  924           // Create a binding table entry
//  925           dstAddr.addrMode = Addr16Bit;
        MOV     A,#0x8
        LCALL   ?XSTACK_DISP0_8
        MOV     A,#0x2
        MOVX    @DPTR,A
//  926           dstAddr.addr.shortAddr = pRsp->nwkAddr;
        MOV     DPL,R6
        MOV     DPH,R7
        INC     DPTR
        MOVX    A,@DPTR
        MOV     R0,A
        INC     DPTR
        MOVX    A,@DPTR
        MOV     R1,A
        MOV     DPL,?XSP + 0
        MOV     DPH,?XSP + 1
        MOV     A,R0
        MOVX    @DPTR,A
        INC     DPTR
        MOV     A,R1
        MOVX    @DPTR,A
//  927 
//  928           if ( APSME_BindRequest( sapi_epDesc.simpleDesc->EndPoint,
//  929                                   sapi_bindInProgress, &dstAddr,
//  930                                   pRsp->epList[0] ) == ZSuccess )
        ; Setup parameters for call to function APSME_BindRequest
        MOV     DPL,R6
        MOV     DPH,R7
        INC     DPTR
        INC     DPTR
        INC     DPTR
        INC     DPTR
        MOVX    A,@DPTR
        MOV     ?V0,A
        MOV     R0,#?V0
        LCALL   ?PUSH_XSTACK_I_ONE
          CFI CFA_XSP16 add(XSP16, 20)
        MOV     A,#0x1
        LCALL   ?XSTACK_DISP102_8
        MOV     DPTR,#sapi_bindInProgress
        MOVX    A,@DPTR
        MOV     R2,A
        INC     DPTR
        MOVX    A,@DPTR
        MOV     R3,A
        MOV     DPTR,#sapi_epDesc + 3
        MOVX    A,@DPTR
        MOV     R0,A
        INC     DPTR
        MOVX    A,@DPTR
        MOV     DPH,A
        MOV     DPL,R0
        MOVX    A,@DPTR
        MOV     R1,A
        LCALL   `??APSME_BindRequest::?relay`; Banked call to: APSME_BindRequest
        MOV     A,#0x1
        LCALL   ?DEALLOC_XSTACK8
          CFI CFA_XSP16 add(XSP16, 19)
        MOV     A,R1
        JNZ     ??SAPI_ProcessZDOMsgs_2
//  931           {
//  932             osal_stop_timerEx(sapi_TaskID,  ZB_BIND_TIMER);
        ; Setup parameters for call to function osal_stop_timerEx
        MOV     R2,#0x0
        MOV     R3,#0x20
        MOV     DPTR,#sapi_TaskID
        MOVX    A,@DPTR
        MOV     R1,A
        LCALL   `??osal_stop_timerEx::?relay`; Banked call to: osal_stop_timerEx
        MOV     A,R1
//  933             osal_start_timerEx( ZDAppTaskID, ZDO_NWK_UPDATE_NV, 250 );
        ; Setup parameters for call to function osal_start_timerEx
        MOV     DPTR,#__Constant_fa
        LCALL   ?PUSH_XSTACK8_X_FOUR
          CFI CFA_XSP16 add(XSP16, 23)
        MOV     R2,#0x0
        MOV     R3,#0x1
        MOV     DPTR,#ZDAppTaskID
        MOVX    A,@DPTR
        MOV     R1,A
        LCALL   `??osal_start_timerEx::?relay`; Banked call to: osal_start_timerEx
        MOV     A,#0x4
        LCALL   ?DEALLOC_XSTACK8
          CFI CFA_XSP16 add(XSP16, 19)
        MOV     A,R1
//  934 
//  935             // Find IEEE addr
//  936             ZDP_IEEEAddrReq( pRsp->nwkAddr, ZDP_ADDR_REQTYPE_SINGLE, 0, 0 );
        ; Setup parameters for call to function ZDP_IEEEAddrReq
        MOV     R5,#0x0
        MOV     R4,#0x0
        MOV     R1,#0x0
        MOV     DPL,R6
        MOV     DPH,R7
        INC     DPTR
        MOVX    A,@DPTR
        MOV     R2,A
        INC     DPTR
        MOVX    A,@DPTR
        MOV     R3,A
        LCALL   `??ZDP_IEEEAddrReq::?relay`; Banked call to: ZDP_IEEEAddrReq
        MOV     A,R1
//  937 #if defined ( MT_SAPI_CB_FUNC )
//  938             zb_MTCallbackBindConfirm( sapi_bindInProgress, ZB_SUCCESS );
//  939 #endif
//  940             // Send bind confirm callback to application
//  941 #if ( SAPI_CB_FUNC )
//  942             zb_BindConfirm( sapi_bindInProgress, ZB_SUCCESS );
        ; Setup parameters for call to function zb_BindConfirm
        MOV     R1,#0x0
        MOV     DPTR,#sapi_bindInProgress
        MOVX    A,@DPTR
        MOV     R2,A
        INC     DPTR
        MOVX    A,@DPTR
        MOV     R3,A
        LCALL   `??zb_BindConfirm::?relay`; Banked call to: zb_BindConfirm
//  943 #endif
//  944             sapi_bindInProgress = 0xffff;
        MOV     DPTR,#sapi_bindInProgress
        MOV     A,#-0x1
        MOVX    @DPTR,A
        INC     DPTR
        MOV     A,#-0x1
        MOVX    @DPTR,A
//  945           }
//  946         }
//  947       }
//  948       break;
//  949   }
//  950 }
??SAPI_ProcessZDOMsgs_2:
        MOV     A,#0x9
        LCALL   ?DEALLOC_XSTACK8
          CFI CFA_XSP16 add(XSP16, 10)
        MOV     R7,#0x2
        LJMP    ?BANKED_LEAVE_XDATA
          CFI R6 SameValue
          CFI VB SameValue
          CFI V0 SameValue
          CFI V1 SameValue
          CFI R7 SameValue
          CFI ?RET_LOW Frame(CFA_SP, 1)
          CFI ?RET_HIGH Frame(CFA_SP, 2)
          CFI ?BRET_EXT Frame(CFA_SP, 3)
          CFI DPL0 SameValue
          CFI DPH0 SameValue
          CFI CFA_SP SP+-3
          CFI CFA_XSP16 XSP16+0
          CFI EndBlock cfiBlock18
//  951 
//  952 /*********************************************************************
//  953  * @fn      SAPI_Init
//  954  *
//  955  * @brief   Initialization function for the Simple API Task.
//  956  *          This is called during initialization and should contain
//  957  *          any application specific initialization (ie. hardware
//  958  *          initialization/setup, table initialization, power up
//  959  *          notification ... ).
//  960  *
//  961  * @param   task_id - the ID assigned by OSAL.  This ID should be
//  962  *                    used to send messages and set timers.
//  963  *
//  964  * @return  none
//  965  */

        RSEG BANKED_CODE:CODE:NOROOT(0)
//  966 void SAPI_Init( byte task_id )
SAPI_Init:
          CFI Block cfiBlock19 Using cfiCommon0
          CFI Function SAPI_Init
        CODE
//  967 {
        FUNCALL SAPI_Init, afRegister
        LOCFRAME ISTACK, 0, STACK
        LOCFRAME PSTACK, 0, STACK
        LOCFRAME XSTACK, 10, STACK
        LOCFRAME IOVERLAY, 0, STATIC
        LOCFRAME DOVERLAY, 0, STATIC
        ARGFRAME ISTACK, 0, STACK
        ARGFRAME PSTACK, 0, STACK
        ARGFRAME XSTACK, 10, STACK
        ARGFRAME IOVERLAY, 0, STATIC
        ARGFRAME DOVERLAY, 0, STATIC
        FUNCALL SAPI_Init, afSetMatch
        LOCFRAME ISTACK, 0, STACK
        LOCFRAME PSTACK, 0, STACK
        LOCFRAME XSTACK, 10, STACK
        LOCFRAME IOVERLAY, 0, STATIC
        LOCFRAME DOVERLAY, 0, STATIC
        ARGFRAME ISTACK, 0, STACK
        ARGFRAME PSTACK, 0, STACK
        ARGFRAME XSTACK, 10, STACK
        ARGFRAME IOVERLAY, 0, STATIC
        ARGFRAME DOVERLAY, 0, STATIC
        FUNCALL SAPI_Init, ZDO_RegisterForZDOMsg
        LOCFRAME ISTACK, 0, STACK
        LOCFRAME PSTACK, 0, STACK
        LOCFRAME XSTACK, 10, STACK
        LOCFRAME IOVERLAY, 0, STATIC
        LOCFRAME DOVERLAY, 0, STATIC
        ARGFRAME ISTACK, 0, STACK
        ARGFRAME PSTACK, 0, STACK
        ARGFRAME XSTACK, 10, STACK
        ARGFRAME IOVERLAY, 0, STATIC
        ARGFRAME DOVERLAY, 0, STATIC
        FUNCALL SAPI_Init, ZDO_RegisterForZDOMsg
        LOCFRAME ISTACK, 0, STACK
        LOCFRAME PSTACK, 0, STACK
        LOCFRAME XSTACK, 10, STACK
        LOCFRAME IOVERLAY, 0, STATIC
        LOCFRAME DOVERLAY, 0, STATIC
        ARGFRAME ISTACK, 0, STACK
        ARGFRAME PSTACK, 0, STACK
        ARGFRAME XSTACK, 10, STACK
        ARGFRAME IOVERLAY, 0, STATIC
        ARGFRAME DOVERLAY, 0, STATIC
        FUNCALL SAPI_Init, RegisterForKeys
        LOCFRAME ISTACK, 0, STACK
        LOCFRAME PSTACK, 0, STACK
        LOCFRAME XSTACK, 10, STACK
        LOCFRAME IOVERLAY, 0, STATIC
        LOCFRAME DOVERLAY, 0, STATIC
        ARGFRAME ISTACK, 0, STACK
        ARGFRAME PSTACK, 0, STACK
        ARGFRAME XSTACK, 10, STACK
        ARGFRAME IOVERLAY, 0, STATIC
        ARGFRAME DOVERLAY, 0, STATIC
        FUNCALL SAPI_Init, HalKeyRead
        LOCFRAME ISTACK, 0, STACK
        LOCFRAME PSTACK, 0, STACK
        LOCFRAME XSTACK, 10, STACK
        LOCFRAME IOVERLAY, 0, STATIC
        LOCFRAME DOVERLAY, 0, STATIC
        ARGFRAME ISTACK, 0, STACK
        ARGFRAME PSTACK, 0, STACK
        ARGFRAME XSTACK, 10, STACK
        ARGFRAME IOVERLAY, 0, STATIC
        ARGFRAME DOVERLAY, 0, STATIC
        FUNCALL SAPI_Init, zb_WriteConfiguration
        LOCFRAME ISTACK, 0, STACK
        LOCFRAME PSTACK, 0, STACK
        LOCFRAME XSTACK, 10, STACK
        LOCFRAME IOVERLAY, 0, STATIC
        LOCFRAME DOVERLAY, 0, STATIC
        ARGFRAME ISTACK, 0, STACK
        ARGFRAME PSTACK, 0, STACK
        ARGFRAME XSTACK, 10, STACK
        ARGFRAME IOVERLAY, 0, STATIC
        ARGFRAME DOVERLAY, 0, STATIC
        FUNCALL SAPI_Init, zb_SystemReset
        LOCFRAME ISTACK, 0, STACK
        LOCFRAME PSTACK, 0, STACK
        LOCFRAME XSTACK, 10, STACK
        LOCFRAME IOVERLAY, 0, STATIC
        LOCFRAME DOVERLAY, 0, STATIC
        ARGFRAME ISTACK, 0, STACK
        ARGFRAME PSTACK, 0, STACK
        ARGFRAME XSTACK, 10, STACK
        ARGFRAME IOVERLAY, 0, STATIC
        ARGFRAME DOVERLAY, 0, STATIC
        FUNCALL SAPI_Init, osal_set_event
        LOCFRAME ISTACK, 0, STACK
        LOCFRAME PSTACK, 0, STACK
        LOCFRAME XSTACK, 10, STACK
        LOCFRAME IOVERLAY, 0, STATIC
        LOCFRAME DOVERLAY, 0, STATIC
        ARGFRAME ISTACK, 0, STACK
        ARGFRAME PSTACK, 0, STACK
        ARGFRAME XSTACK, 10, STACK
        ARGFRAME IOVERLAY, 0, STATIC
        ARGFRAME DOVERLAY, 0, STATIC
        MOV     A,#-0x9
        LCALL   ?BANKED_ENTER_XDATA
          CFI DPH0 load(1, XDATA, add(CFA_XSP16, literal(-1)))
          CFI DPL0 load(1, XDATA, add(CFA_XSP16, literal(-2)))
          CFI ?BRET_EXT load(1, XDATA, add(CFA_XSP16, literal(-3)))
          CFI ?RET_HIGH load(1, XDATA, add(CFA_XSP16, literal(-4)))
          CFI ?RET_LOW load(1, XDATA, add(CFA_XSP16, literal(-5)))
          CFI R7 load(1, XDATA, add(CFA_XSP16, literal(-6)))
          CFI V0 load(1, XDATA, add(CFA_XSP16, literal(-7)))
          CFI VB load(1, XDATA, add(CFA_XSP16, literal(-8)))
          CFI R6 load(1, XDATA, add(CFA_XSP16, literal(-9)))
          CFI CFA_SP SP+0
          CFI CFA_XSP16 add(XSP16, 9)
        ; Saved register size: 9
        ; Auto size: 1
        MOV     A,#-0x1
        LCALL   ?ALLOC_XSTACK8
          CFI CFA_XSP16 add(XSP16, 10)
        MOV     A,R1
        MOV     R6,A
//  968   sapi_TaskID = task_id;
        MOV     A,R6
        MOV     DPTR,#sapi_TaskID
        MOVX    @DPTR,A
//  969   sapi_bindInProgress = 0xffff;
        MOV     DPTR,#sapi_bindInProgress
        MOV     A,#-0x1
        MOVX    @DPTR,A
        INC     DPTR
        MOV     A,#-0x1
        MOVX    @DPTR,A
//  970 
//  971   sapi_epDesc.task_id = &sapi_TaskID;
        MOV     DPTR,#sapi_epDesc + 1
        MOV     A,#sapi_TaskID & 0xff
        MOVX    @DPTR,A
        INC     DPTR
        MOV     A,#(sapi_TaskID >> 8) & 0xff
        MOVX    @DPTR,A
//  972   sapi_epDesc.endPoint = 0;
        MOV     DPTR,#sapi_epDesc
        MOV     A,#0x0
        MOVX    @DPTR,A
//  973 
//  974 #if ( SAPI_CB_FUNC )
//  975   sapi_epDesc.endPoint = zb_SimpleDesc.EndPoint;
        MOV     DPTR,#zb_SimpleDesc
        MOVX    A,@DPTR
        MOV     DPTR,#sapi_epDesc
        MOVX    @DPTR,A
//  976   sapi_epDesc.task_id = &sapi_TaskID;
        MOV     DPTR,#sapi_epDesc + 1
        MOV     A,#sapi_TaskID & 0xff
        MOVX    @DPTR,A
        INC     DPTR
        MOV     A,#(sapi_TaskID >> 8) & 0xff
        MOVX    @DPTR,A
//  977   sapi_epDesc.simpleDesc = (SimpleDescriptionFormat_t *)&zb_SimpleDesc;
        MOV     DPTR,#sapi_epDesc + 3
        MOV     A,#zb_SimpleDesc & 0xff
        MOVX    @DPTR,A
        INC     DPTR
        MOV     A,#(zb_SimpleDesc >> 8) & 0xff
        MOVX    @DPTR,A
//  978   sapi_epDesc.latencyReq = noLatencyReqs;
        MOV     DPTR,#sapi_epDesc + 5
        MOV     A,#0x0
        MOVX    @DPTR,A
//  979 
//  980   // Register the endpoint/interface description with the AF
//  981   afRegister( &sapi_epDesc );
        ; Setup parameters for call to function afRegister
        MOV     R2,#sapi_epDesc & 0xff
        MOV     R3,#(sapi_epDesc >> 8) & 0xff
        LCALL   `??afRegister::?relay`; Banked call to: afRegister
        MOV     A,R1
//  982 #endif
//  983 
//  984   // Turn off match descriptor response by default
//  985   afSetMatch(sapi_epDesc.simpleDesc->EndPoint, FALSE);
        ; Setup parameters for call to function afSetMatch
        MOV     R2,#0x0
        MOV     DPTR,#sapi_epDesc + 3
        MOVX    A,@DPTR
        MOV     R0,A
        INC     DPTR
        MOVX    A,@DPTR
        MOV     DPH,A
        MOV     DPL,R0
        MOVX    A,@DPTR
        MOV     R1,A
        LCALL   `??afSetMatch::?relay`; Banked call to: afSetMatch
        MOV     A,R1
//  986 
//  987   // Register callback evetns from the ZDApp
//  988   ZDO_RegisterForZDOMsg( sapi_TaskID, NWK_addr_rsp );
        ; Setup parameters for call to function ZDO_RegisterForZDOMsg
        MOV     R2,#0x0
        MOV     R3,#-0x80
        MOV     DPTR,#sapi_TaskID
        MOVX    A,@DPTR
        MOV     R1,A
        LCALL   `??ZDO_RegisterForZDOMsg::?relay`; Banked call to: ZDO_RegisterForZDOMsg
        MOV     A,R1
//  989   ZDO_RegisterForZDOMsg( sapi_TaskID, Match_Desc_rsp );
        ; Setup parameters for call to function ZDO_RegisterForZDOMsg
        MOV     R2,#0x6
        MOV     R3,#-0x80
        MOV     DPTR,#sapi_TaskID
        MOVX    A,@DPTR
        MOV     R1,A
        LCALL   `??ZDO_RegisterForZDOMsg::?relay`; Banked call to: ZDO_RegisterForZDOMsg
        MOV     A,R1
//  990 
//  991 #if ( SAPI_CB_FUNC )
//  992 #if (defined HAL_KEY) && (HAL_KEY == TRUE)
//  993   // Register for HAL events
//  994   RegisterForKeys( sapi_TaskID );
        ; Setup parameters for call to function RegisterForKeys
        MOV     DPTR,#sapi_TaskID
        MOVX    A,@DPTR
        MOV     R1,A
        LCALL   `??RegisterForKeys::?relay`; Banked call to: RegisterForKeys
        MOV     A,R1
//  995 
//  996   if ( HalKeyRead () == HAL_KEY_SW_2)
        ; Setup parameters for call to function HalKeyRead
        LCALL   `??HalKeyRead::?relay`; Banked call to: HalKeyRead
        MOV     A,R1
        XRL     A,#0x2
        JNZ     ??SAPI_Init_0
//  997   {
//  998     // If SW2 is pressed and held while powerup, force auto-start and nv-restore off and reset
//  999     uint8 startOptions = ZCD_STARTOPT_CLEAR_STATE | ZCD_STARTOPT_CLEAR_CONFIG;
        MOV     DPL,?XSP + 0
        MOV     DPH,?XSP + 1
        MOV     A,#0x3
        MOVX    @DPTR,A
// 1000     zb_WriteConfiguration( ZCD_NV_STARTUP_OPTION, sizeof(uint8), &startOptions );
        ; Setup parameters for call to function zb_WriteConfiguration
        MOV     R4,?XSP + 0
        MOV     R5,?XSP + 1
        MOV     R2,#0x1
        MOV     R1,#0x3
        LCALL   `??zb_WriteConfiguration::?relay`; Banked call to: zb_WriteConfiguration
        MOV     A,R1
// 1001     zb_SystemReset();
        ; Setup parameters for call to function zb_SystemReset
        LCALL   `??zb_SystemReset::?relay`; Banked call to: zb_SystemReset
// 1002   }
// 1003 #endif // HAL_KEY
// 1004 
// 1005   // Set an event to start the application
// 1006   osal_set_event(task_id, ZB_ENTRY_EVENT);
??SAPI_Init_0:
        ; Setup parameters for call to function osal_set_event
        MOV     R2,#0x0
        MOV     R3,#0x10
        MOV     A,R6
        MOV     R1,A
        LCALL   `??osal_set_event::?relay`; Banked call to: osal_set_event
        MOV     A,R1
// 1007 #endif
// 1008 }
        MOV     A,#0x1
        LCALL   ?DEALLOC_XSTACK8
          CFI CFA_XSP16 add(XSP16, 9)
        MOV     R7,#0x1
        LJMP    ?BANKED_LEAVE_XDATA
          CFI R6 SameValue
          CFI VB SameValue
          CFI V0 SameValue
          CFI R7 SameValue
          CFI ?RET_LOW Frame(CFA_SP, 1)
          CFI ?RET_HIGH Frame(CFA_SP, 2)
          CFI ?BRET_EXT Frame(CFA_SP, 3)
          CFI DPL0 SameValue
          CFI DPH0 SameValue
          CFI CFA_SP SP+-3
          CFI CFA_XSP16 XSP16+0
          CFI EndBlock cfiBlock19
// 1009 
// 1010 /*********************************************************************
// 1011  * @fn      SAPI_SendCback
// 1012  *
// 1013  * @brief   Sends a message to the sapi task ( itself ) so that a
// 1014  *          callback can be generated later.
// 1015  *
// 1016  * @return  none
// 1017  */

        RSEG BANKED_CODE:CODE:NOROOT(0)
// 1018 void SAPI_SendCback( uint8 event, uint8 status, uint16 data )
SAPI_SendCback:
          CFI Block cfiBlock20 Using cfiCommon0
          CFI Function SAPI_SendCback
        CODE
// 1019 {
        FUNCALL SAPI_SendCback, osal_msg_allocate
        LOCFRAME ISTACK, 0, STACK
        LOCFRAME PSTACK, 0, STACK
        LOCFRAME XSTACK, 12, STACK
        LOCFRAME IOVERLAY, 0, STATIC
        LOCFRAME DOVERLAY, 0, STATIC
        ARGFRAME ISTACK, 0, STACK
        ARGFRAME PSTACK, 0, STACK
        ARGFRAME XSTACK, 12, STACK
        ARGFRAME IOVERLAY, 0, STATIC
        ARGFRAME DOVERLAY, 0, STATIC
        FUNCALL SAPI_SendCback, osal_msg_send
        LOCFRAME ISTACK, 0, STACK
        LOCFRAME PSTACK, 0, STACK
        LOCFRAME XSTACK, 12, STACK
        LOCFRAME IOVERLAY, 0, STATIC
        LOCFRAME DOVERLAY, 0, STATIC
        ARGFRAME ISTACK, 0, STACK
        ARGFRAME PSTACK, 0, STACK
        ARGFRAME XSTACK, 12, STACK
        ARGFRAME IOVERLAY, 0, STATIC
        ARGFRAME DOVERLAY, 0, STATIC
        REQUIRE ?V0
        REQUIRE ?V1
        REQUIRE ?V2
        REQUIRE ?V3
        MOV     A,#-0xc
        LCALL   ?BANKED_ENTER_XDATA
          CFI DPH0 load(1, XDATA, add(CFA_XSP16, literal(-1)))
          CFI DPL0 load(1, XDATA, add(CFA_XSP16, literal(-2)))
          CFI ?BRET_EXT load(1, XDATA, add(CFA_XSP16, literal(-3)))
          CFI ?RET_HIGH load(1, XDATA, add(CFA_XSP16, literal(-4)))
          CFI ?RET_LOW load(1, XDATA, add(CFA_XSP16, literal(-5)))
          CFI R7 load(1, XDATA, add(CFA_XSP16, literal(-6)))
          CFI V3 load(1, XDATA, add(CFA_XSP16, literal(-7)))
          CFI V2 load(1, XDATA, add(CFA_XSP16, literal(-8)))
          CFI V1 load(1, XDATA, add(CFA_XSP16, literal(-9)))
          CFI V0 load(1, XDATA, add(CFA_XSP16, literal(-10)))
          CFI VB load(1, XDATA, add(CFA_XSP16, literal(-11)))
          CFI R6 load(1, XDATA, add(CFA_XSP16, literal(-12)))
          CFI CFA_SP SP+0
          CFI CFA_XSP16 add(XSP16, 12)
        ; Saved register size: 12
        ; Auto size: 0
        MOV     ?V0,R1
        MOV     ?V1,R2
        MOV     A,R4
        MOV     R6,A
        MOV     A,R5
        MOV     R7,A
// 1020   sapi_CbackEvent_t *pMsg;
// 1021 
// 1022   pMsg = (sapi_CbackEvent_t *)osal_msg_allocate( sizeof(sapi_CbackEvent_t) );
        ; Setup parameters for call to function osal_msg_allocate
        MOV     R2,#0x4
        MOV     R3,#0x0
        LCALL   `??osal_msg_allocate::?relay`; Banked call to: osal_msg_allocate
        MOV     ?V2,R2
        MOV     ?V3,R3
        MOV     R2,?V2
        MOV     R3,?V3
// 1023   if( pMsg )
        MOV     A,R2
        ORL     A,R3
        JZ      ??SAPI_SendCback_0
// 1024   {
// 1025     pMsg->hdr.event = event;
        MOV     A,?V0
        PUSH    A
          CFI CFA_SP SP+-1
        MOV     DPL,R2
        MOV     DPH,R3
        POP     A
          CFI CFA_SP SP+0
        MOVX    @DPTR,A
// 1026     pMsg->hdr.status = status;
        MOV     A,?V1
        PUSH    A
          CFI CFA_SP SP+-1
        MOV     DPL,R2
        MOV     DPH,R3
        INC     DPTR
        POP     A
          CFI CFA_SP SP+0
        MOVX    @DPTR,A
// 1027     pMsg->data = data;
        MOV     DPL,R2
        MOV     DPH,R3
        INC     DPTR
        INC     DPTR
        MOV     A,R6
        MOVX    @DPTR,A
        INC     DPTR
        MOV     A,R7
        MOVX    @DPTR,A
// 1028 
// 1029     osal_msg_send( sapi_TaskID, (uint8 *)pMsg );
        ; Setup parameters for call to function osal_msg_send
        MOV     DPTR,#sapi_TaskID
        MOVX    A,@DPTR
        MOV     R1,A
        LCALL   `??osal_msg_send::?relay`; Banked call to: osal_msg_send
        MOV     A,R1
// 1030   }
// 1031 
// 1032 }
??SAPI_SendCback_0:
        MOV     R7,#0x4
        LJMP    ?BANKED_LEAVE_XDATA
          CFI R6 SameValue
          CFI VB SameValue
          CFI V0 SameValue
          CFI V1 SameValue
          CFI V2 SameValue
          CFI V3 SameValue
          CFI R7 SameValue
          CFI ?RET_LOW Frame(CFA_SP, 1)
          CFI ?RET_HIGH Frame(CFA_SP, 2)
          CFI ?BRET_EXT Frame(CFA_SP, 3)
          CFI DPL0 SameValue
          CFI DPH0 SameValue
          CFI CFA_SP SP+-3
          CFI CFA_XSP16 XSP16+0
          CFI EndBlock cfiBlock20

        RSEG XDATA_ROM_C:CONST:REORDER:NOROOT(0)
        DATA32
__Constant_fa:
        DD 250

        RSEG BANK_RELAYS:CODE:REORDER:NOROOT(0)
`??zb_SystemReset::?relay`:
        CODE
        LCALL   ?BDISPATCH
        DATA24
        DC24    zb_SystemReset

        RSEG BANK_RELAYS:CODE:REORDER:NOROOT(0)
`??zb_StartRequest::?relay`:
        CODE
        LCALL   ?BDISPATCH
        DATA24
        DC24    zb_StartRequest

        RSEG BANK_RELAYS:CODE:REORDER:NOROOT(0)
`??zb_BindDevice::?relay`:
        CODE
        LCALL   ?BDISPATCH
        DATA24
        DC24    zb_BindDevice

        RSEG BANK_RELAYS:CODE:REORDER:NOROOT(0)
`??zb_PermitJoiningRequest::?relay`:
        CODE
        LCALL   ?BDISPATCH
        DATA24
        DC24    zb_PermitJoiningRequest

        RSEG BANK_RELAYS:CODE:REORDER:NOROOT(0)
`??zb_AllowBind::?relay`:
        CODE
        LCALL   ?BDISPATCH
        DATA24
        DC24    zb_AllowBind

        RSEG BANK_RELAYS:CODE:REORDER:NOROOT(0)
`??zb_SendDataRequest::?relay`:
        CODE
        LCALL   ?BDISPATCH
        DATA24
        DC24    zb_SendDataRequest

        RSEG BANK_RELAYS:CODE:REORDER:NOROOT(0)
`??zb_ReadConfiguration::?relay`:
        CODE
        LCALL   ?BDISPATCH
        DATA24
        DC24    zb_ReadConfiguration

        RSEG BANK_RELAYS:CODE:REORDER:NOROOT(0)
`??zb_WriteConfiguration::?relay`:
        CODE
        LCALL   ?BDISPATCH
        DATA24
        DC24    zb_WriteConfiguration

        RSEG BANK_RELAYS:CODE:REORDER:NOROOT(0)
`??zb_GetDeviceInfo::?relay`:
        CODE
        LCALL   ?BDISPATCH
        DATA24
        DC24    zb_GetDeviceInfo

        RSEG BANK_RELAYS:CODE:REORDER:NOROOT(0)
`??zb_FindDeviceRequest::?relay`:
        CODE
        LCALL   ?BDISPATCH
        DATA24
        DC24    zb_FindDeviceRequest

        RSEG BANK_RELAYS:CODE:REORDER:NOROOT(0)
`??SAPI_StartConfirm::?relay`:
        CODE
        LCALL   ?BDISPATCH
        DATA24
        DC24    SAPI_StartConfirm

        RSEG BANK_RELAYS:CODE:REORDER:NOROOT(0)
`??SAPI_SendDataConfirm::?relay`:
        CODE
        LCALL   ?BDISPATCH
        DATA24
        DC24    SAPI_SendDataConfirm

        RSEG BANK_RELAYS:CODE:REORDER:NOROOT(0)
`??SAPI_BindConfirm::?relay`:
        CODE
        LCALL   ?BDISPATCH
        DATA24
        DC24    SAPI_BindConfirm

        RSEG BANK_RELAYS:CODE:REORDER:NOROOT(0)
`??SAPI_AllowBindConfirm::?relay`:
        CODE
        LCALL   ?BDISPATCH
        DATA24
        DC24    SAPI_AllowBindConfirm

        RSEG BANK_RELAYS:CODE:REORDER:NOROOT(0)
`??SAPI_FindDeviceConfirm::?relay`:
        CODE
        LCALL   ?BDISPATCH
        DATA24
        DC24    SAPI_FindDeviceConfirm

        RSEG BANK_RELAYS:CODE:REORDER:NOROOT(0)
`??SAPI_ReceiveDataIndication::?relay`:
        CODE
        LCALL   ?BDISPATCH
        DATA24
        DC24    SAPI_ReceiveDataIndication

        RSEG BANK_RELAYS:CODE:REORDER:NOROOT(0)
`??USER_event_loop::?relay`:
        CODE
        LCALL   ?BDISPATCH
        DATA24
        DC24    USER_event_loop

        RSEG BANK_RELAYS:CODE:REORDER:NOROOT(0)
`??SAPI_ProcessEvent::?relay`:
        CODE
        LCALL   ?BDISPATCH
        DATA24
        DC24    SAPI_ProcessEvent

        RSEG BANK_RELAYS:CODE:REORDER:NOROOT(0)
`??SAPI_ProcessZDOMsgs::?relay`:
        CODE
        LCALL   ?BDISPATCH
        DATA24
        DC24    SAPI_ProcessZDOMsgs

        RSEG BANK_RELAYS:CODE:REORDER:NOROOT(0)
`??SAPI_Init::?relay`:
        CODE
        LCALL   ?BDISPATCH
        DATA24
        DC24    SAPI_Init

        RSEG BANK_RELAYS:CODE:REORDER:NOROOT(0)
`??SAPI_SendCback::?relay`:
        CODE
        LCALL   ?BDISPATCH
        DATA24
        DC24    SAPI_SendCback

        END
// 1033 
// 1034 /*********************************************************************
// 1035 *********************************************************************/
// 
// 2 879 bytes in segment BANKED_CODE
//   126 bytes in segment BANK_RELAYS
//     1 byte  in segment SFR_AN
//    19 bytes in segment XDATA_ROM_C
//    12 bytes in segment XDATA_Z
// 
// 3 005 bytes of CODE  memory
//    15 bytes of CONST memory (+ 4 bytes shared)
//     0 bytes of DATA  memory (+ 1 byte  shared)
//    12 bytes of XDATA memory
//
//Errors: none
//Warnings: none
